---
triple:          'arm64-apple-darwin'
binary-path:     '/Users/matthew/Library/CloudStorage/GoogleDrive-mattsoh100@gmail.com/My Drive/Mac/Coding/Olympiad/BOIT4/3'
relocations:
  - { offset: 0x20773, size: 0x8, addend: 0x0, symName: __ZStL8__ioinit, symObjAddr: 0x9F79D, symBinAddr: 0x100010000, symSize: 0x0 }
  - { offset: 0x20D4F, size: 0x8, addend: 0x0, symName: _vis, symObjAddr: 0x9F7A0, symBinAddr: 0x100010008, symSize: 0x0 }
  - { offset: 0x212A8, size: 0x8, addend: 0x0, symName: __ZNSt3setISt6vectorIiSaIiEESt4lessIS2_ESaIS2_EED1Ev, symObjAddr: 0x4B48, symBinAddr: 0x100007600, symSize: 0x20 }
  - { offset: 0x212CA, size: 0x8, addend: 0x0, symName: __ZNSt11__copy_moveILb0ELb0ESt26random_access_iterator_tagE12__assign_oneIPSt4pairISt6vectorIiSaIiEES6_ES8_EEvPT_PT0_, symObjAddr: 0x4B20, symBinAddr: 0x1000075D8, symSize: 0x28 }
  - { offset: 0x21326, size: 0x8, addend: 0x0, symName: __ZNK9__gnu_cxx5__ops15_Iter_less_iterclIPKiS4_EEbT_T0_, symObjAddr: 0x4AEC, symBinAddr: 0x1000075A4, symSize: 0x34 }
  - { offset: 0x2137E, size: 0x8, addend: 0x0, symName: __ZNSt8__lc_raiISt26random_access_iterator_tagS0_E6__cnd2IPKiEEbT_S5_, symObjAddr: 0x4AD4, symBinAddr: 0x10000758C, symSize: 0x18 }
  - { offset: 0x213B2, size: 0x8, addend: 0x0, symName: __ZNSt8__lc_raiISt26random_access_iterator_tagS0_E10__newlast1IPKiS4_EET_S5_S5_T0_S6_, symObjAddr: 0x4A68, symBinAddr: 0x100007520, symSize: 0x6C }
  - { offset: 0x21443, size: 0x8, addend: 0x0, symName: __ZNSt20__copy_move_backwardILb0ELb1ESt26random_access_iterator_tagE13__copy_move_bIPSt4pairISt6vectorIiSaIiEES6_ES8_EEPT0_PT_SC_SA_, symObjAddr: 0x49BC, symBinAddr: 0x100007474, symSize: 0xAC }
  - { offset: 0x214B2, size: 0x8, addend: 0x0, symName: __ZNSt11__copy_moveILb0ELb1ESt26random_access_iterator_tagE8__copy_mIPSt4pairISt6vectorIiSaIiEES6_ES8_EEPT0_PT_SC_SA_, symObjAddr: 0x492C, symBinAddr: 0x1000073E4, symSize: 0x90 }
  - { offset: 0x21521, size: 0x8, addend: 0x0, symName: __ZSt30__lexicographical_compare_implIPKiS1_N9__gnu_cxx5__ops15_Iter_less_iterEEbT_S5_T0_S6_T1_, symObjAddr: 0x481C, symBinAddr: 0x1000072D4, symSize: 0x110 }
  - { offset: 0x215AA, size: 0x8, addend: 0x0, symName: __ZNSt11__copy_moveILb0ELb0ESt26random_access_iterator_tagE12__assign_oneIiKiEEvPT_PT0_, symObjAddr: 0x47F4, symBinAddr: 0x1000072AC, symSize: 0x28 }
  - { offset: 0x215F7, size: 0x8, addend: 0x0, symName: __ZSt23__copy_move_backward_a2ILb0EPPSt4pairISt6vectorIiSaIiEES3_ES6_ET1_T0_S8_S7_, symObjAddr: 0x47C8, symBinAddr: 0x100007280, symSize: 0x2C }
  - { offset: 0x2165F, size: 0x8, addend: 0x0, symName: __ZSt14__copy_move_a2ILb0EPPSt4pairISt6vectorIiSaIiEES3_ES6_ET1_T0_S8_S7_, symObjAddr: 0x479C, symBinAddr: 0x100007254, symSize: 0x2C }
  - { offset: 0x216C7, size: 0x8, addend: 0x0, symName: __ZNSt25__lexicographical_compareILb0EE4__lcIPKiS3_EEbT_S4_T0_S5_, symObjAddr: 0x4758, symBinAddr: 0x100007210, symSize: 0x44 }
  - { offset: 0x21736, size: 0x8, addend: 0x0, symName: __ZNSt11__copy_moveILb0ELb1ESt26random_access_iterator_tagE8__copy_mIKiiEEPT0_PT_S7_S5_, symObjAddr: 0x46C8, symBinAddr: 0x100007180, symSize: 0x90 }
  - { offset: 0x217A5, size: 0x8, addend: 0x0, symName: __ZSt23__copy_move_backward_a1ILb0EPPSt4pairISt6vectorIiSaIiEES3_ES6_ET1_T0_S8_S7_, symObjAddr: 0x469C, symBinAddr: 0x100007154, symSize: 0x2C }
  - { offset: 0x2180D, size: 0x8, addend: 0x0, symName: __ZSt12__niter_wrapIPPSt4pairISt6vectorIiSaIiEES3_EET_RKS7_S7_, symObjAddr: 0x4684, symBinAddr: 0x10000713C, symSize: 0x18 }
  - { offset: 0x21849, size: 0x8, addend: 0x0, symName: __ZSt14__copy_move_a1ILb0EPPSt4pairISt6vectorIiSaIiEES3_ES6_ET1_T0_S8_S7_, symObjAddr: 0x4658, symBinAddr: 0x100007110, symSize: 0x2C }
  - { offset: 0x218B1, size: 0x8, addend: 0x0, symName: __ZSt12__niter_baseIPPSt4pairISt6vectorIiSaIiEES3_EET_S7_, symObjAddr: 0x4644, symBinAddr: 0x1000070FC, symSize: 0x14 }
  - { offset: 0x2192A, size: 0x8, addend: 0x0, symName: __ZNSt15__new_allocatorISt13_Rb_tree_nodeISt6vectorIiSaIiEEEE8allocateEmPKv, symObjAddr: 0x45AC, symBinAddr: 0x100007064, symSize: 0x98 }
  - { offset: 0x219B2, size: 0x8, addend: 0x0, symName: __ZSt30__lexicographical_compare_aux1IPKiS1_EbT_S2_T0_S3_, symObjAddr: 0x4574, symBinAddr: 0x10000702C, symSize: 0x38 }
  - { offset: 0x21A32, size: 0x8, addend: 0x0, symName: __ZSt14__copy_move_a2ILb0EPKiPiET1_T0_S4_S3_, symObjAddr: 0x4548, symBinAddr: 0x100007000, symSize: 0x2C }
  - { offset: 0x21A9E, size: 0x8, addend: 0x0, symName: __ZNK9__gnu_cxx17__normal_iteratorIPKiSt6vectorIiSaIiEEE4baseEv, symObjAddr: 0x4534, symBinAddr: 0x100006FEC, symSize: 0x14 }
  - { offset: 0x21AC4, size: 0x8, addend: 0x0, symName: __ZSt22__copy_move_backward_aILb0EPPSt4pairISt6vectorIiSaIiEES3_ES6_ET1_T0_S8_S7_, symObjAddr: 0x44D4, symBinAddr: 0x100006F8C, symSize: 0x60 }
  - { offset: 0x21B2C, size: 0x8, addend: 0x0, symName: __ZSt13__copy_move_aILb0EPPSt4pairISt6vectorIiSaIiEES3_ES6_ET1_T0_S8_S7_, symObjAddr: 0x4474, symBinAddr: 0x100006F2C, symSize: 0x60 }
  - { offset: 0x21B94, size: 0x8, addend: 0x0, symName: __ZSt12__miter_baseIPPSt4pairISt6vectorIiSaIiEES3_EET_S7_, symObjAddr: 0x4460, symBinAddr: 0x100006F18, symSize: 0x14 }
  - { offset: 0x21C5B, size: 0x8, addend: 0x0, symName: __ZSt29__lexicographical_compare_auxIN9__gnu_cxx17__normal_iteratorIPKiSt6vectorIiSaIiEEEES7_EbT_S8_T0_S9_, symObjAddr: 0x43F0, symBinAddr: 0x100006EA8, symSize: 0x70 }
  - { offset: 0x21CD2, size: 0x8, addend: 0x0, symName: __ZNK9__gnu_cxx16__aligned_membufISt6vectorIiSaIiEEE7_M_addrEv, symObjAddr: 0x43DC, symBinAddr: 0x100006E94, symSize: 0x14 }
  - { offset: 0x21CF8, size: 0x8, addend: 0x0, symName: __ZSt12__niter_wrapIPiET_RKS1_S1_, symObjAddr: 0x43C4, symBinAddr: 0x100006E7C, symSize: 0x18 }
  - { offset: 0x21D34, size: 0x8, addend: 0x0, symName: __ZSt14__copy_move_a1ILb0EPKiPiET1_T0_S4_S3_, symObjAddr: 0x4398, symBinAddr: 0x100006E50, symSize: 0x2C }
  - { offset: 0x21D9C, size: 0x8, addend: 0x0, symName: __ZSt12__niter_baseIPKiSt6vectorIiSaIiEEET_N9__gnu_cxx17__normal_iteratorIS5_T0_EE, symObjAddr: 0x4378, symBinAddr: 0x100006E30, symSize: 0x20 }
  - { offset: 0x21DD8, size: 0x8, addend: 0x0, symName: __ZSt13copy_backwardIPPSt4pairISt6vectorIiSaIiEES3_ES6_ET0_T_S8_S7_, symObjAddr: 0x4330, symBinAddr: 0x100006DE8, symSize: 0x48 }
  - { offset: 0x21E36, size: 0x8, addend: 0x0, symName: __ZSt4copyIPPSt4pairISt6vectorIiSaIiEES3_ES6_ET0_T_S8_S7_, symObjAddr: 0x42E8, symBinAddr: 0x100006DA0, symSize: 0x48 }
  - { offset: 0x21ED5, size: 0x8, addend: 0x0, symName: __ZNSt12_Vector_baseIiSaIiEE17_Vector_impl_dataC2EOS2_, symObjAddr: 0x4278, symBinAddr: 0x100006D30, symSize: 0x70 }
  - { offset: 0x21F0D, size: 0x8, addend: 0x0, symName: __ZSt4moveIRNSt12_Vector_baseIiSaIiEE12_Vector_implEEONSt16remove_referenceIT_E4typeEOS6_, symObjAddr: 0x4264, symBinAddr: 0x100006D1C, symSize: 0x14 }
  - { offset: 0x21F3F, size: 0x8, addend: 0x0, symName: __ZSt8_DestroyISt4pairISt6vectorIiSaIiEES3_EEvPT_, symObjAddr: 0x4244, symBinAddr: 0x100006CFC, symSize: 0x20 }
  - { offset: 0x21F71, size: 0x8, addend: 0x0, symName: __ZSt11__addressofISt4pairISt6vectorIiSaIiEES3_EEPT_RS5_, symObjAddr: 0x4230, symBinAddr: 0x100006CE8, symSize: 0x14 }
  - { offset: 0x21FA7, size: 0x8, addend: 0x0, symName: __ZNSt15__new_allocatorISt4pairISt6vectorIiSaIiEES3_EE8allocateEmPKv, symObjAddr: 0x41A0, symBinAddr: 0x100006C58, symSize: 0x90 }
  - { offset: 0x22037, size: 0x8, addend: 0x0, symName: __ZN9__gnu_cxx16__aligned_membufISt6vectorIiSaIiEEE7_M_addrEv, symObjAddr: 0x418C, symBinAddr: 0x100006C44, symSize: 0x14 }
  - { offset: 0x22077, size: 0x8, addend: 0x0, symName: __ZNSt8_Rb_treeISt6vectorIiSaIiEES2_St9_IdentityIS2_ESt4lessIS2_ESaIS2_EE17_M_construct_nodeIJRKS2_EEEvPSt13_Rb_tree_nodeIS2_EDpOT_, symObjAddr: 0x4088, symBinAddr: 0x100006B40, symSize: 0x104 }
  - { offset: 0x22132, size: 0x8, addend: 0x0, symName: __ZNSt8_Rb_treeISt6vectorIiSaIiEES2_St9_IdentityIS2_ESt4lessIS2_ESaIS2_EE11_M_get_nodeEv, symObjAddr: 0x404C, symBinAddr: 0x100006B04, symSize: 0x3C }
  - { offset: 0x22185, size: 0x8, addend: 0x0, symName: __ZSt23lexicographical_compareIN9__gnu_cxx17__normal_iteratorIPKiSt6vectorIiSaIiEEEES7_EbT_S8_T0_S9_, symObjAddr: 0x4018, symBinAddr: 0x100006AD0, symSize: 0x34 }
  - { offset: 0x221F8, size: 0x8, addend: 0x0, symName: __ZNK9__gnu_cxx16__aligned_membufISt6vectorIiSaIiEEE6_M_ptrEv, symObjAddr: 0x3FFC, symBinAddr: 0x100006AB4, symSize: 0x1C }
  - { offset: 0x2221E, size: 0x8, addend: 0x0, symName: __ZSt13__copy_move_aILb0EN9__gnu_cxx17__normal_iteratorIPKiSt6vectorIiSaIiEEEEPiET1_T0_SA_S9_, symObjAddr: 0x3F9C, symBinAddr: 0x100006A54, symSize: 0x60 }
  - { offset: 0x22286, size: 0x8, addend: 0x0, symName: __ZSt12__miter_baseIN9__gnu_cxx17__normal_iteratorIPKiSt6vectorIiSaIiEEEEET_S8_, symObjAddr: 0x3F88, symBinAddr: 0x100006A40, symSize: 0x14 }
  - { offset: 0x222BD, size: 0x8, addend: 0x0, symName: __ZNSt5dequeISt4pairISt6vectorIiSaIiEES3_ESaIS4_EE17_M_reallocate_mapEmb, symObjAddr: 0x3D44, symBinAddr: 0x1000067FC, symSize: 0x244 }
  - { offset: 0x2236E, size: 0x8, addend: 0x0, symName: __ZNSt5dequeISt4pairISt6vectorIiSaIiEES3_ESaIS4_EE11_S_max_sizeERKS5_, symObjAddr: 0x3CEC, symBinAddr: 0x1000067A4, symSize: 0x58 }
  - { offset: 0x2242B, size: 0x8, addend: 0x0, symName: __ZStmiRKSt15_Deque_iteratorISt4pairISt6vectorIiSaIiEES3_ERS4_PS4_ES9_, symObjAddr: 0x3C40, symBinAddr: 0x1000066F8, symSize: 0xAC }
  - { offset: 0x22491, size: 0x8, addend: 0x0, symName: __ZNSt12_Vector_baseIiSaIiEE12_Vector_implC1EOS2_, symObjAddr: 0x3BD4, symBinAddr: 0x10000668C, symSize: 0x6C }
  - { offset: 0x22514, size: 0x8, addend: 0x0, symName: __ZNSt12_Destroy_auxILb0EE9__destroyIPSt4pairISt6vectorIiSaIiEES5_EEEvT_S8_, symObjAddr: 0x3B88, symBinAddr: 0x100006640, symSize: 0x4C }
  - { offset: 0x22570, size: 0x8, addend: 0x0, symName: __ZNSt15__new_allocatorISt4pairISt6vectorIiSaIiEES3_EE10deallocateEPS4_m, symObjAddr: 0x3B4C, symBinAddr: 0x100006604, symSize: 0x3C }
  - { offset: 0x225DE, size: 0x8, addend: 0x0, symName: __ZNSt15__new_allocatorIPSt4pairISt6vectorIiSaIiEES3_EE8allocateEmPKv, symObjAddr: 0x3AD0, symBinAddr: 0x100006588, symSize: 0x7C }
  - { offset: 0x2266A, size: 0x8, addend: 0x0, symName: __ZNSt15__new_allocatorISt13_Rb_tree_nodeISt6vectorIiSaIiEEEE10deallocateEPS4_m, symObjAddr: 0x3A94, symBinAddr: 0x10000654C, symSize: 0x3C }
  - { offset: 0x226E0, size: 0x8, addend: 0x0, symName: __ZN9__gnu_cxx16__aligned_membufISt6vectorIiSaIiEEE6_M_ptrEv, symObjAddr: 0x3A78, symBinAddr: 0x100006530, symSize: 0x1C }
  - { offset: 0x22706, size: 0x8, addend: 0x0, symName: __ZSt14__relocate_a_1IiiENSt9enable_ifIXsrSt24__is_bitwise_relocatableIT_vE5valueEPS2_E4typeES4_S4_S4_RSaIT0_E, symObjAddr: 0x3A14, symBinAddr: 0x1000064CC, symSize: 0x64 }
  - { offset: 0x22786, size: 0x8, addend: 0x0, symName: __ZSt12__niter_baseIPiET_S1_, symObjAddr: 0x3A00, symBinAddr: 0x1000064B8, symSize: 0x14 }
  - { offset: 0x227BD, size: 0x8, addend: 0x0, symName: __ZNSt15__new_allocatorIiE8allocateEmPKv, symObjAddr: 0x3984, symBinAddr: 0x10000643C, symSize: 0x7C }
  - { offset: 0x22845, size: 0x8, addend: 0x0, symName: __ZNSt6vectorIiSaIiEE11_S_max_sizeERKS0_, symObjAddr: 0x3930, symBinAddr: 0x1000063E8, symSize: 0x54 }
  - { offset: 0x22900, size: 0x8, addend: 0x0, symName: __ZNSt8_Rb_treeISt6vectorIiSaIiEES2_St9_IdentityIS2_ESt4lessIS2_ESaIS2_EE14_M_create_nodeIJRKS2_EEEPSt13_Rb_tree_nodeIS2_EDpOT_, symObjAddr: 0x38F0, symBinAddr: 0x1000063A8, symSize: 0x40 }
  - { offset: 0x22958, size: 0x8, addend: 0x0, symName: __ZSt7forwardIRPSt18_Rb_tree_node_baseEOT_RNSt16remove_referenceIS3_E4typeE, symObjAddr: 0x38DC, symBinAddr: 0x100006394, symSize: 0x14 }
  - { offset: 0x22996, size: 0x8, addend: 0x0, symName: __ZSt7forwardIRPSt13_Rb_tree_nodeISt6vectorIiSaIiEEEEOT_RNSt16remove_referenceIS7_E4typeE, symObjAddr: 0x38C8, symBinAddr: 0x100006380, symSize: 0x14 }
  - { offset: 0x229C8, size: 0x8, addend: 0x0, symName: __ZStltIiSaIiEEbRKSt6vectorIT_T0_ES6_, symObjAddr: 0x3860, symBinAddr: 0x100006318, symSize: 0x68 }
  - { offset: 0x22A19, size: 0x8, addend: 0x0, symName: __ZNKSt13_Rb_tree_nodeISt6vectorIiSaIiEEE9_M_valptrEv, symObjAddr: 0x3840, symBinAddr: 0x1000062F8, symSize: 0x20 }
  - { offset: 0x22A3F, size: 0x8, addend: 0x0, symName: __ZSt4copyIN9__gnu_cxx17__normal_iteratorIPKiSt6vectorIiSaIiEEEEPiET0_T_SA_S9_, symObjAddr: 0x37F8, symBinAddr: 0x1000062B0, symSize: 0x48 }
  - { offset: 0x22ABC, size: 0x8, addend: 0x0, symName: __ZNSt15_Deque_iteratorISt4pairISt6vectorIiSaIiEES3_ERS4_PS4_EmmEv, symObjAddr: 0x378C, symBinAddr: 0x100006244, symSize: 0x6C }
  - { offset: 0x22AE6, size: 0x8, addend: 0x0, symName: __ZNSt5dequeISt4pairISt6vectorIiSaIiEES3_ESaIS4_EE22_M_reserve_map_at_backEm, symObjAddr: 0x372C, symBinAddr: 0x1000061E4, symSize: 0x60 }
  - { offset: 0x22B21, size: 0x8, addend: 0x0, symName: __ZNKSt5dequeISt4pairISt6vectorIiSaIiEES3_ESaIS4_EE8max_sizeEv, symObjAddr: 0x370C, symBinAddr: 0x1000061C4, symSize: 0x20 }
  - { offset: 0x22B4B, size: 0x8, addend: 0x0, symName: __ZNKSt5dequeISt4pairISt6vectorIiSaIiEES3_ESaIS4_EE4sizeEv, symObjAddr: 0x36DC, symBinAddr: 0x100006194, symSize: 0x30 }
  - { offset: 0x22BD6, size: 0x8, addend: 0x0, symName: __ZNSt4pairISt6vectorIiSaIiEES2_EC1EOS3_, symObjAddr: 0x3698, symBinAddr: 0x100006150, symSize: 0x44 }
  - { offset: 0x22C24, size: 0x8, addend: 0x0, symName: __ZNSt6vectorIiSaIiEEC1EOS1_, symObjAddr: 0x3670, symBinAddr: 0x100006128, symSize: 0x28 }
  - { offset: 0x22C72, size: 0x8, addend: 0x0, symName: __ZNSt12_Vector_baseIiSaIiEEC2EOS1_, symObjAddr: 0x3648, symBinAddr: 0x100006100, symSize: 0x28 }
  - { offset: 0x22C9D, size: 0x8, addend: 0x0, symName: __ZSt8_DestroyIPSt4pairISt6vectorIiSaIiEES3_EEvT_S6_, symObjAddr: 0x3620, symBinAddr: 0x1000060D8, symSize: 0x28 }
  - { offset: 0x22CE3, size: 0x8, addend: 0x0, symName: __ZNSt15__new_allocatorIPSt4pairISt6vectorIiSaIiEES3_EE10deallocateEPS5_m, symObjAddr: 0x35F0, symBinAddr: 0x1000060A8, symSize: 0x30 }
  - { offset: 0x22D51, size: 0x8, addend: 0x0, symName: __ZNSt15__new_allocatorIPSt4pairISt6vectorIiSaIiEES3_EED2Ev, symObjAddr: 0x35DC, symBinAddr: 0x100006094, symSize: 0x14 }
  - { offset: 0x22D9B, size: 0x8, addend: 0x0, symName: __ZNKSt11_Deque_baseISt4pairISt6vectorIiSaIiEES3_ESaIS4_EE19_M_get_Tp_allocatorEv, symObjAddr: 0x35C8, symBinAddr: 0x100006080, symSize: 0x14 }
  - { offset: 0x22DF3, size: 0x8, addend: 0x0, symName: __ZNSt15_Deque_iteratorISt4pairISt6vectorIiSaIiEES3_ERS4_PS4_E14_S_buffer_sizeEv, symObjAddr: 0x35B0, symBinAddr: 0x100006068, symSize: 0x18 }
  - { offset: 0x22E0F, size: 0x8, addend: 0x0, symName: __ZNSt11_Deque_baseISt4pairISt6vectorIiSaIiEES3_ESaIS4_EE16_M_allocate_nodeEv, symObjAddr: 0x356C, symBinAddr: 0x100006024, symSize: 0x44 }
  - { offset: 0x22EA4, size: 0x8, addend: 0x0, symName: __ZNSt15_Deque_iteratorISt4pairISt6vectorIiSaIiEES3_ERS4_PS4_EC1Ev, symObjAddr: 0x3538, symBinAddr: 0x100005FF0, symSize: 0x34 }
  - { offset: 0x22F3F, size: 0x8, addend: 0x0, symName: __ZNSt13_Rb_tree_nodeISt6vectorIiSaIiEEE9_M_valptrEv, symObjAddr: 0x3518, symBinAddr: 0x100005FD0, symSize: 0x20 }
  - { offset: 0x22F69, size: 0x8, addend: 0x0, symName: __ZNSt8_Rb_treeISt6vectorIiSaIiEES2_St9_IdentityIS2_ESt4lessIS2_ESaIS2_EE21_M_get_Node_allocatorEv, symObjAddr: 0x3504, symBinAddr: 0x100005FBC, symSize: 0x14 }
  - { offset: 0x22F8F, size: 0x8, addend: 0x0, symName: __ZSt12__relocate_aIPiS0_SaIiEET0_T_S3_S2_RT1_, symObjAddr: 0x34A8, symBinAddr: 0x100005F60, symSize: 0x5C }
  - { offset: 0x2302F, size: 0x8, addend: 0x0, symName: __ZNKSt6vectorIiSaIiEE8max_sizeEv, symObjAddr: 0x3488, symBinAddr: 0x100005F40, symSize: 0x20 }
  - { offset: 0x23059, size: 0x8, addend: 0x0, symName: __ZN9__gnu_cxx5__ops16_Iter_equals_valIKiEclINS_17__normal_iteratorIPiSt6vectorIiSaIiEEEEEEbT_, symObjAddr: 0x344C, symBinAddr: 0x100005F04, symSize: 0x3C }
  - { offset: 0x2309F, size: 0x8, addend: 0x0, symName: __ZSt7forwardISt17_Rb_tree_iteratorISt6vectorIiSaIiEEEEOT_RNSt16remove_referenceIS5_E4typeE, symObjAddr: 0x3438, symBinAddr: 0x100005EF0, symSize: 0x14 }
  - { offset: 0x230E0, size: 0x8, addend: 0x0, symName: __ZNKSt8_Rb_treeISt6vectorIiSaIiEES2_St9_IdentityIS2_ESt4lessIS2_ESaIS2_EE11_Alloc_nodeclIRKS2_EEPSt13_Rb_tree_nodeIS2_EOT_, symObjAddr: 0x33FC, symBinAddr: 0x100005EB4, symSize: 0x3C }
  - { offset: 0x2316C, size: 0x8, addend: 0x0, symName: __ZNSt4pairIPSt18_Rb_tree_node_baseS1_EC1IS1_S1_Lb1EEERKS1_S5_, symObjAddr: 0x33C0, symBinAddr: 0x100005E78, symSize: 0x3C }
  - { offset: 0x231B2, size: 0x8, addend: 0x0, symName: __ZNSt8_Rb_treeISt6vectorIiSaIiEES2_St9_IdentityIS2_ESt4lessIS2_ESaIS2_EE6_S_keyEPKSt18_Rb_tree_node_base, symObjAddr: 0x33A4, symBinAddr: 0x100005E5C, symSize: 0x1C }
  - { offset: 0x231E0, size: 0x8, addend: 0x0, symName: __ZNSt17_Rb_tree_iteratorISt6vectorIiSaIiEEEmmEv, symObjAddr: 0x3374, symBinAddr: 0x100005E2C, symSize: 0x30 }
  - { offset: 0x23252, size: 0x8, addend: 0x0, symName: __ZNSt4pairIPSt18_Rb_tree_node_baseS1_EC1IRPSt13_Rb_tree_nodeISt6vectorIiSaIiEEERS1_Lb1EEEOT_OT0_, symObjAddr: 0x332C, symBinAddr: 0x100005DE4, symSize: 0x48 }
  - { offset: 0x2329E, size: 0x8, addend: 0x0, symName: __ZSteqRKSt17_Rb_tree_iteratorISt6vectorIiSaIiEEES5_, symObjAddr: 0x32FC, symBinAddr: 0x100005DB4, symSize: 0x30 }
  - { offset: 0x232DD, size: 0x8, addend: 0x0, symName: __ZNSt8_Rb_treeISt6vectorIiSaIiEES2_St9_IdentityIS2_ESt4lessIS2_ESaIS2_EE5beginEv, symObjAddr: 0x32D4, symBinAddr: 0x100005D8C, symSize: 0x28 }
  - { offset: 0x23307, size: 0x8, addend: 0x0, symName: __ZNKSt4lessISt6vectorIiSaIiEEEclERKS2_S5_, symObjAddr: 0x32AC, symBinAddr: 0x100005D64, symSize: 0x28 }
  - { offset: 0x2334F, size: 0x8, addend: 0x0, symName: __ZNSt8_Rb_treeISt6vectorIiSaIiEES2_St9_IdentityIS2_ESt4lessIS2_ESaIS2_EE6_S_keyEPKSt13_Rb_tree_nodeIS2_E, symObjAddr: 0x3284, symBinAddr: 0x100005D3C, symSize: 0x28 }
  - { offset: 0x2337D, size: 0x8, addend: 0x0, symName: __ZNSt8_Rb_treeISt6vectorIiSaIiEES2_St9_IdentityIS2_ESt4lessIS2_ESaIS2_EE6_M_endEv, symObjAddr: 0x326C, symBinAddr: 0x100005D24, symSize: 0x18 }
  - { offset: 0x233CF, size: 0x8, addend: 0x0, symName: __ZNSt20__uninitialized_copyILb1EE13__uninit_copyIN9__gnu_cxx17__normal_iteratorIPKiSt6vectorIiSaIiEEEEPiEET0_T_SC_SB_, symObjAddr: 0x3240, symBinAddr: 0x100005CF8, symSize: 0x2C }
  - { offset: 0x23451, size: 0x8, addend: 0x0, symName: __ZNSt5dequeISt4pairISt6vectorIiSaIiEES3_ESaIS4_EE4backEv, symObjAddr: 0x320C, symBinAddr: 0x100005CC4, symSize: 0x34 }
  - { offset: 0x2348C, size: 0x8, addend: 0x0, symName: __ZNSt5dequeISt4pairISt6vectorIiSaIiEES3_ESaIS4_EE16_M_push_back_auxIJS4_EEEvDpOT_, symObjAddr: 0x30E8, symBinAddr: 0x100005BA0, symSize: 0x124 }
  - { offset: 0x23583, size: 0x8, addend: 0x0, symName: __ZSt7forwardISt4pairISt6vectorIiSaIiEES3_EEOT_RNSt16remove_referenceIS5_E4typeE, symObjAddr: 0x30D4, symBinAddr: 0x100005B8C, symSize: 0x14 }
  - { offset: 0x235F0, size: 0x8, addend: 0x0, symName: __ZNSt5dequeISt4pairISt6vectorIiSaIiEES3_ESaIS4_EE14_S_buffer_sizeEv, symObjAddr: 0x30BC, symBinAddr: 0x100005B74, symSize: 0x18 }
  - { offset: 0x2365E, size: 0x8, addend: 0x0, symName: __ZNKSt11_Deque_baseISt4pairISt6vectorIiSaIiEES3_ESaIS4_EE20_M_get_map_allocatorEv, symObjAddr: 0x3074, symBinAddr: 0x100005B2C, symSize: 0x48 }
  - { offset: 0x236D8, size: 0x8, addend: 0x0, symName: __ZNSt11_Deque_baseISt4pairISt6vectorIiSaIiEES3_ESaIS4_EE18_M_deallocate_nodeEPS4_, symObjAddr: 0x301C, symBinAddr: 0x100005AD4, symSize: 0x58 }
  - { offset: 0x23749, size: 0x8, addend: 0x0, symName: __ZNSt15_Deque_iteratorISt4pairISt6vectorIiSaIiEES3_ERS4_PS4_E11_M_set_nodeEPS6_, symObjAddr: 0x2FB0, symBinAddr: 0x100005A68, symSize: 0x6C }
  - { offset: 0x23784, size: 0x8, addend: 0x0, symName: __ZNSt11_Deque_baseISt4pairISt6vectorIiSaIiEES3_ESaIS4_EE15_M_create_nodesEPPS4_S8_, symObjAddr: 0x2F24, symBinAddr: 0x1000059DC, symSize: 0x8C }
  - { offset: 0x237E1, size: 0x8, addend: 0x0, symName: __ZNSt11_Deque_baseISt4pairISt6vectorIiSaIiEES3_ESaIS4_EE15_M_allocate_mapEm, symObjAddr: 0x2EA4, symBinAddr: 0x10000595C, symSize: 0x80 }
  - { offset: 0x238BD, size: 0x8, addend: 0x0, symName: __ZNSt15__new_allocatorISt4pairISt6vectorIiSaIiEES3_EED2Ev, symObjAddr: 0x2E90, symBinAddr: 0x100005948, symSize: 0x14 }
  - { offset: 0x238FD, size: 0x8, addend: 0x0, symName: __ZNSt11_Deque_baseISt4pairISt6vectorIiSaIiEES3_ESaIS4_EE16_Deque_impl_dataC2Ev, symObjAddr: 0x2E50, symBinAddr: 0x100005908, symSize: 0x40 }
  - { offset: 0x23939, size: 0x8, addend: 0x0, symName: __ZNK9__gnu_cxx17__normal_iteratorIPiSt6vectorIiSaIiEEEmiEl, symObjAddr: 0x2E0C, symBinAddr: 0x1000058C4, symSize: 0x44 }
  - { offset: 0x239B2, size: 0x8, addend: 0x0, symName: __ZNSt12_Destroy_auxILb1EE9__destroyIPiEEvT_S3_, symObjAddr: 0x2DF4, symBinAddr: 0x1000058AC, symSize: 0x18 }
  - { offset: 0x239EA, size: 0x8, addend: 0x0, symName: __ZNSt15__new_allocatorIiE10deallocateEPim, symObjAddr: 0x2DC4, symBinAddr: 0x10000587C, symSize: 0x30 }
  - { offset: 0x23A34, size: 0x8, addend: 0x0, symName: __ZNSt8_Rb_treeISt6vectorIiSaIiEES2_St9_IdentityIS2_ESt4lessIS2_ESaIS2_EE11_M_put_nodeEPSt13_Rb_tree_nodeIS2_E, symObjAddr: 0x2D78, symBinAddr: 0x100005830, symSize: 0x4C }
  - { offset: 0x23AA5, size: 0x8, addend: 0x0, symName: __ZNSt8_Rb_treeISt6vectorIiSaIiEES2_St9_IdentityIS2_ESt4lessIS2_ESaIS2_EE15_M_destroy_nodeEPSt13_Rb_tree_nodeIS2_E, symObjAddr: 0x2D18, symBinAddr: 0x1000057D0, symSize: 0x60 }
  - { offset: 0x23B36, size: 0x8, addend: 0x0, symName: __ZNSt6vectorIiSaIiEE11_S_relocateEPiS2_S2_RS0_, symObjAddr: 0x2CE4, symBinAddr: 0x10000579C, symSize: 0x34 }
  - { offset: 0x23B93, size: 0x8, addend: 0x0, symName: __ZSt12__to_addressIiEPT_S1_, symObjAddr: 0x2CD0, symBinAddr: 0x100005788, symSize: 0x14 }
  - { offset: 0x23BC9, size: 0x8, addend: 0x0, symName: __ZNSt12_Vector_baseIiSaIiEE11_M_allocateEm, symObjAddr: 0x2C80, symBinAddr: 0x100005738, symSize: 0x50 }
  - { offset: 0x23C33, size: 0x8, addend: 0x0, symName: __ZN9__gnu_cxxmiIPiSt6vectorIiSaIiEEEENS_17__normal_iteratorIT_T0_E15difference_typeERKS8_SB_, symObjAddr: 0x2C40, symBinAddr: 0x1000056F8, symSize: 0x40 }
  - { offset: 0x23C84, size: 0x8, addend: 0x0, symName: __ZNKSt6vectorIiSaIiEE12_M_check_lenEmPKc, symObjAddr: 0x2B70, symBinAddr: 0x100005628, symSize: 0xD0 }
  - { offset: 0x23D25, size: 0x8, addend: 0x0, symName: __ZSt7forwardIRKiEOT_RNSt16remove_referenceIS2_E4typeE, symObjAddr: 0x2B5C, symBinAddr: 0x100005614, symSize: 0x14 }
  - { offset: 0x23D57, size: 0x8, addend: 0x0, symName: __ZSt9__find_ifIN9__gnu_cxx17__normal_iteratorIPiSt6vectorIiSaIiEEEENS0_5__ops16_Iter_equals_valIKiEEET_SB_SB_T0_St26random_access_iterator_tag, symObjAddr: 0x29C0, symBinAddr: 0x100005478, symSize: 0x19C }
  - { offset: 0x23E11, size: 0x8, addend: 0x0, symName: __ZN9__gnu_cxx5__ops16_Iter_equals_valIKiEC1ERS2_, symObjAddr: 0x299C, symBinAddr: 0x100005454, symSize: 0x24 }
  - { offset: 0x23E68, size: 0x8, addend: 0x0, symName: __ZNSt23_Rb_tree_const_iteratorISt6vectorIiSaIiEEEC1ERKSt17_Rb_tree_iteratorIS2_E, symObjAddr: 0x2974, symBinAddr: 0x10000542C, symSize: 0x28 }
  - { offset: 0x23E99, size: 0x8, addend: 0x0, symName: __ZSt7forwardIRbEOT_RNSt16remove_referenceIS1_E4typeE, symObjAddr: 0x2960, symBinAddr: 0x100005418, symSize: 0x14 }
  - { offset: 0x23ED1, size: 0x8, addend: 0x0, symName: __ZSt7forwardIRSt17_Rb_tree_iteratorISt6vectorIiSaIiEEEEOT_RNSt16remove_referenceIS6_E4typeE, symObjAddr: 0x294C, symBinAddr: 0x100005404, symSize: 0x14 }
  - { offset: 0x23F2F, size: 0x8, addend: 0x0, symName: __ZNSt17_Rb_tree_iteratorISt6vectorIiSaIiEEEC1EPSt18_Rb_tree_node_base, symObjAddr: 0x2928, symBinAddr: 0x1000053E0, symSize: 0x24 }
  - { offset: 0x23FA6, size: 0x8, addend: 0x0, symName: __ZNSt4pairISt17_Rb_tree_iteratorISt6vectorIiSaIiEEEbEC1IS4_bLb1EEEOT_OT0_, symObjAddr: 0x28DC, symBinAddr: 0x100005394, symSize: 0x4C }
  - { offset: 0x23FF6, size: 0x8, addend: 0x0, symName: __ZNSt8_Rb_treeISt6vectorIiSaIiEES2_St9_IdentityIS2_ESt4lessIS2_ESaIS2_EE10_M_insert_IRKS2_NS8_11_Alloc_nodeEEESt17_Rb_tree_iteratorIS2_EPSt18_Rb_tree_node_baseSG_OT_RT0_, symObjAddr: 0x27EC, symBinAddr: 0x1000052A4, symSize: 0xF0 }
  - { offset: 0x2409B, size: 0x8, addend: 0x0, symName: __ZSt7forwardIRKSt6vectorIiSaIiEEEOT_RNSt16remove_referenceIS5_E4typeE, symObjAddr: 0x27D8, symBinAddr: 0x100005290, symSize: 0x14 }
  - { offset: 0x240F9, size: 0x8, addend: 0x0, symName: __ZNSt8_Rb_treeISt6vectorIiSaIiEES2_St9_IdentityIS2_ESt4lessIS2_ESaIS2_EE11_Alloc_nodeC1ERS8_, symObjAddr: 0x27B4, symBinAddr: 0x10000526C, symSize: 0x24 }
  - { offset: 0x24128, size: 0x8, addend: 0x0, symName: __ZNKSt9_IdentityISt6vectorIiSaIiEEEclERKS2_, symObjAddr: 0x279C, symBinAddr: 0x100005254, symSize: 0x18 }
  - { offset: 0x24163, size: 0x8, addend: 0x0, symName: __ZNSt8_Rb_treeISt6vectorIiSaIiEES2_St9_IdentityIS2_ESt4lessIS2_ESaIS2_EE24_M_get_insert_unique_posERKS2_, symObjAddr: 0x2644, symBinAddr: 0x1000050FC, symSize: 0x158 }
  - { offset: 0x241E7, size: 0x8, addend: 0x0, symName: __ZNSt5dequeISt4pairISt6vectorIiSaIiEES3_ESaIS4_EE16_M_pop_front_auxEv, symObjAddr: 0x25A8, symBinAddr: 0x100005060, symSize: 0x9C }
  - { offset: 0x24294, size: 0x8, addend: 0x0, symName: __ZSt18uninitialized_copyIN9__gnu_cxx17__normal_iteratorIPKiSt6vectorIiSaIiEEEEPiET0_T_SA_S9_, symObjAddr: 0x256C, symBinAddr: 0x100005024, symSize: 0x3C }
  - { offset: 0x2433B, size: 0x8, addend: 0x0, symName: __ZN9__gnu_cxx17__normal_iteratorIPKiSt6vectorIiSaIiEEEC1ERKS2_, symObjAddr: 0x2544, symBinAddr: 0x100004FFC, symSize: 0x28 }
  - { offset: 0x2436A, size: 0x8, addend: 0x0, symName: __ZNSt12_Vector_baseIiSaIiEE17_M_create_storageEm, symObjAddr: 0x24E4, symBinAddr: 0x100004F9C, symSize: 0x60 }
  - { offset: 0x243CC, size: 0x8, addend: 0x0, symName: __ZNSt12_Vector_baseIiSaIiEE12_Vector_implC1ERKS0_, symObjAddr: 0x2498, symBinAddr: 0x100004F50, symSize: 0x4C }
  - { offset: 0x24469, size: 0x8, addend: 0x0, symName: __ZNKSt15_Deque_iteratorISt4pairISt6vectorIiSaIiEES3_ERS4_PS4_EdeEv, symObjAddr: 0x2480, symBinAddr: 0x100004F38, symSize: 0x18 }
  - { offset: 0x2448F, size: 0x8, addend: 0x0, symName: __ZSteqRKSt15_Deque_iteratorISt4pairISt6vectorIiSaIiEES3_ERS4_PS4_ES9_, symObjAddr: 0x2450, symBinAddr: 0x100004F08, symSize: 0x30 }
  - { offset: 0x244CE, size: 0x8, addend: 0x0, symName: __ZNSt5dequeISt4pairISt6vectorIiSaIiEES3_ESaIS4_EE12emplace_backIJS4_EEERS4_DpOT_, symObjAddr: 0x2370, symBinAddr: 0x100004E28, symSize: 0xE0 }
  - { offset: 0x2457D, size: 0x8, addend: 0x0, symName: __ZNSt5dequeISt4pairISt6vectorIiSaIiEES3_ESaIS4_EE19_M_destroy_data_auxESt15_Deque_iteratorIS4_RS4_PS4_ESA_, symObjAddr: 0x2210, symBinAddr: 0x100004CC8, symSize: 0x160 }
  - { offset: 0x246F6, size: 0x8, addend: 0x0, symName: __ZNSt15_Deque_iteratorISt4pairISt6vectorIiSaIiEES3_ERS4_PS4_EC1ERKS7_, symObjAddr: 0x21B8, symBinAddr: 0x100004C70, symSize: 0x58 }
  - { offset: 0x24725, size: 0x8, addend: 0x0, symName: __ZNSt11_Deque_baseISt4pairISt6vectorIiSaIiEES3_ESaIS4_EE17_M_deallocate_mapEPPS4_m, symObjAddr: 0x2158, symBinAddr: 0x100004C10, symSize: 0x60 }
  - { offset: 0x247D6, size: 0x8, addend: 0x0, symName: __ZNSt11_Deque_baseISt4pairISt6vectorIiSaIiEES3_ESaIS4_EE16_M_destroy_nodesEPPS4_S8_, symObjAddr: 0x20F8, symBinAddr: 0x100004BB0, symSize: 0x60 }
  - { offset: 0x24846, size: 0x8, addend: 0x0, symName: __ZNSt11_Deque_baseISt4pairISt6vectorIiSaIiEES3_ESaIS4_EE17_M_initialize_mapEm, symObjAddr: 0x1F60, symBinAddr: 0x100004A18, symSize: 0x198 }
  - { offset: 0x248EE, size: 0x8, addend: 0x0, symName: __ZNSt11_Deque_baseISt4pairISt6vectorIiSaIiEES3_ESaIS4_EE11_Deque_implC1Ev, symObjAddr: 0x1F28, symBinAddr: 0x1000049E0, symSize: 0x38 }
  - { offset: 0x2495B, size: 0x8, addend: 0x0, symName: __ZNSt6vectorIiSaIiEE4backEv, symObjAddr: 0x1EF0, symBinAddr: 0x1000049A8, symSize: 0x38 }
  - { offset: 0x24985, size: 0x8, addend: 0x0, symName: __ZNSt6vectorIiSaIiEE17_M_realloc_appendIJiEEEvDpOT_, symObjAddr: 0x1D34, symBinAddr: 0x1000047EC, symSize: 0x1BC }
  - { offset: 0x24B09, size: 0x8, addend: 0x0, symName: __ZZNSt6vectorIiSaIiEE17_M_realloc_appendIJiEEEvDpOT_EN6_GuardC1EPimRS0_, symObjAddr: 0x1C90, symBinAddr: 0x100004748, symSize: 0x44 }
  - { offset: 0x24B4E, size: 0x8, addend: 0x0, symName: __ZZNSt6vectorIiSaIiEE17_M_realloc_appendIJiEEEvDpOT_EN6_GuardD1Ev, symObjAddr: 0x1CD4, symBinAddr: 0x10000478C, symSize: 0x60 }
  - { offset: 0x24C81, size: 0x8, addend: 0x0, symName: __ZSt8_DestroyIPiEvT_S1_, symObjAddr: 0x1C68, symBinAddr: 0x100004720, symSize: 0x28 }
  - { offset: 0x24D0F, size: 0x8, addend: 0x0, symName: __ZNKSt8_Rb_treeISt6vectorIiSaIiEES2_St9_IdentityIS2_ESt4lessIS2_ESaIS2_EE9_M_mbeginEv, symObjAddr: 0x1C50, symBinAddr: 0x100004708, symSize: 0x18 }
  - { offset: 0x24D39, size: 0x8, addend: 0x0, symName: __ZNSt8_Rb_treeISt6vectorIiSaIiEES2_St9_IdentityIS2_ESt4lessIS2_ESaIS2_EE12_M_drop_nodeEPSt13_Rb_tree_nodeIS2_E, symObjAddr: 0x1C1C, symBinAddr: 0x1000046D4, symSize: 0x34 }
  - { offset: 0x24D70, size: 0x8, addend: 0x0, symName: __ZNSt8_Rb_treeISt6vectorIiSaIiEES2_St9_IdentityIS2_ESt4lessIS2_ESaIS2_EE7_S_leftEPSt18_Rb_tree_node_base, symObjAddr: 0x1C04, symBinAddr: 0x1000046BC, symSize: 0x18 }
  - { offset: 0x24D9A, size: 0x8, addend: 0x0, symName: __ZNSt8_Rb_treeISt6vectorIiSaIiEES2_St9_IdentityIS2_ESt4lessIS2_ESaIS2_EE8_S_rightEPSt18_Rb_tree_node_base, symObjAddr: 0x1BEC, symBinAddr: 0x1000046A4, symSize: 0x18 }
  - { offset: 0x24DDE, size: 0x8, addend: 0x0, symName: __ZNKSt8_Rb_treeISt6vectorIiSaIiEES2_St9_IdentityIS2_ESt4lessIS2_ESaIS2_EE4sizeEv, symObjAddr: 0x1BD4, symBinAddr: 0x10000468C, symSize: 0x18 }
  - { offset: 0x24E0A, size: 0x8, addend: 0x0, symName: __ZSt7forwardIRSt6vectorIiSaIiEEEOT_RNSt16remove_referenceIS4_E4typeE, symObjAddr: 0x1BC0, symBinAddr: 0x100004678, symSize: 0x14 }
  - { offset: 0x24E40, size: 0x8, addend: 0x0, symName: __ZNSt6vectorIiSaIiEE17_M_realloc_appendIJRKiEEEvDpOT_, symObjAddr: 0x1A04, symBinAddr: 0x1000044BC, symSize: 0x1BC }
  - { offset: 0x24FC4, size: 0x8, addend: 0x0, symName: __ZZNSt6vectorIiSaIiEE17_M_realloc_appendIJRKiEEEvDpOT_EN6_GuardC1EPimRS0_, symObjAddr: 0x1960, symBinAddr: 0x100004418, symSize: 0x44 }
  - { offset: 0x25009, size: 0x8, addend: 0x0, symName: __ZZNSt6vectorIiSaIiEE17_M_realloc_appendIJRKiEEEvDpOT_EN6_GuardD1Ev, symObjAddr: 0x19A4, symBinAddr: 0x10000445C, symSize: 0x60 }
  - { offset: 0x2513C, size: 0x8, addend: 0x0, symName: __ZSt9__find_ifIN9__gnu_cxx17__normal_iteratorIPiSt6vectorIiSaIiEEEENS0_5__ops16_Iter_equals_valIKiEEET_SB_SB_T0_, symObjAddr: 0x1930, symBinAddr: 0x1000043E8, symSize: 0x30 }
  - { offset: 0x251BB, size: 0x8, addend: 0x0, symName: __ZN9__gnu_cxx5__ops17__iter_equals_valIKiEENS0_16_Iter_equals_valIT_EERS4_, symObjAddr: 0x190C, symBinAddr: 0x1000043C4, symSize: 0x24 }
  - { offset: 0x2523A, size: 0x8, addend: 0x0, symName: __ZNSt4pairISt23_Rb_tree_const_iteratorISt6vectorIiSaIiEEEbEC1IRSt17_Rb_tree_iteratorIS3_ERbLb1EEEOT_OT0_, symObjAddr: 0x18B8, symBinAddr: 0x100004370, symSize: 0x54 }
  - { offset: 0x25284, size: 0x8, addend: 0x0, symName: __ZNSt8_Rb_treeISt6vectorIiSaIiEES2_St9_IdentityIS2_ESt4lessIS2_ESaIS2_EE16_M_insert_uniqueIRKS2_EESt4pairISt17_Rb_tree_iteratorIS2_EbEOT_, symObjAddr: 0x17EC, symBinAddr: 0x1000042A4, symSize: 0xCC }
  - { offset: 0x25301, size: 0x8, addend: 0x0, symName: __ZNSt5dequeISt4pairISt6vectorIiSaIiEES3_ESaIS4_EE9pop_frontEv, symObjAddr: 0x175C, symBinAddr: 0x100004214, symSize: 0x90 }
  - { offset: 0x25381, size: 0x8, addend: 0x0, symName: __ZSt22__uninitialized_copy_aIN9__gnu_cxx17__normal_iteratorIPKiSt6vectorIiSaIiEEEEPiiET0_T_SA_S9_RSaIT1_E, symObjAddr: 0x172C, symBinAddr: 0x1000041E4, symSize: 0x30 }
  - { offset: 0x253F5, size: 0x8, addend: 0x0, symName: __ZNKSt6vectorIiSaIiEE3endEv, symObjAddr: 0x1704, symBinAddr: 0x1000041BC, symSize: 0x28 }
  - { offset: 0x2541F, size: 0x8, addend: 0x0, symName: __ZNKSt6vectorIiSaIiEE5beginEv, symObjAddr: 0x16E0, symBinAddr: 0x100004198, symSize: 0x24 }
  - { offset: 0x2547F, size: 0x8, addend: 0x0, symName: __ZNSt12_Vector_baseIiSaIiEEC2EmRKS0_, symObjAddr: 0x168C, symBinAddr: 0x100004144, symSize: 0x54 }
  - { offset: 0x254CC, size: 0x8, addend: 0x0, symName: __ZNKSt12_Vector_baseIiSaIiEE19_M_get_Tp_allocatorEv, symObjAddr: 0x1678, symBinAddr: 0x100004130, symSize: 0x14 }
  - { offset: 0x254F6, size: 0x8, addend: 0x0, symName: __ZNSt5dequeISt4pairISt6vectorIiSaIiEES3_ESaIS4_EE5frontEv, symObjAddr: 0x164C, symBinAddr: 0x100004104, symSize: 0x2C }
  - { offset: 0x25520, size: 0x8, addend: 0x0, symName: __ZNKSt5dequeISt4pairISt6vectorIiSaIiEES3_ESaIS4_EE5emptyEv, symObjAddr: 0x161C, symBinAddr: 0x1000040D4, symSize: 0x30 }
  - { offset: 0x2554A, size: 0x8, addend: 0x0, symName: __ZNSt5dequeISt4pairISt6vectorIiSaIiEES3_ESaIS4_EE9push_backEOS4_, symObjAddr: 0x15EC, symBinAddr: 0x1000040A4, symSize: 0x30 }
  - { offset: 0x25585, size: 0x8, addend: 0x0, symName: __ZNSt5dequeISt4pairISt6vectorIiSaIiEES3_ESaIS4_EE15_M_destroy_dataESt15_Deque_iteratorIS4_RS4_PS4_ESA_RKS5_, symObjAddr: 0x1598, symBinAddr: 0x100004050, symSize: 0x54 }
  - { offset: 0x255E0, size: 0x8, addend: 0x0, symName: __ZNSt11_Deque_baseISt4pairISt6vectorIiSaIiEES3_ESaIS4_EE19_M_get_Tp_allocatorEv, symObjAddr: 0x1584, symBinAddr: 0x10000403C, symSize: 0x14 }
  - { offset: 0x2560A, size: 0x8, addend: 0x0, symName: __ZNSt5dequeISt4pairISt6vectorIiSaIiEES3_ESaIS4_EE3endEv, symObjAddr: 0x154C, symBinAddr: 0x100004004, symSize: 0x38 }
  - { offset: 0x25634, size: 0x8, addend: 0x0, symName: __ZNSt5dequeISt4pairISt6vectorIiSaIiEES3_ESaIS4_EE5beginEv, symObjAddr: 0x1514, symBinAddr: 0x100003FCC, symSize: 0x38 }
  - { offset: 0x25682, size: 0x8, addend: 0x0, symName: __ZNSt11_Deque_baseISt4pairISt6vectorIiSaIiEES3_ESaIS4_EED2Ev, symObjAddr: 0x14A8, symBinAddr: 0x100003F60, symSize: 0x6C }
  - { offset: 0x256C2, size: 0x8, addend: 0x0, symName: __ZNSt11_Deque_baseISt4pairISt6vectorIiSaIiEES3_ESaIS4_EEC2Ev, symObjAddr: 0x1460, symBinAddr: 0x100003F18, symSize: 0x48 }
  - { offset: 0x25710, size: 0x8, addend: 0x0, symName: __ZNSt11_Deque_baseISt4pairISt6vectorIiSaIiEES3_ESaIS4_EE11_Deque_implD1Ev, symObjAddr: 0x1434, symBinAddr: 0x100003EEC, symSize: 0x2C }
  - { offset: 0x2575A, size: 0x8, addend: 0x0, symName: __ZNSt6vectorIiSaIiEE12emplace_backIJiEEERiDpOT_, symObjAddr: 0x135C, symBinAddr: 0x100003E14, symSize: 0xD8 }
  - { offset: 0x2580C, size: 0x8, addend: 0x0, symName: __ZSt4moveIRiEONSt16remove_referenceIT_E4typeEOS2_, symObjAddr: 0x1348, symBinAddr: 0x100003E00, symSize: 0x14 }
  - { offset: 0x25842, size: 0x8, addend: 0x0, symName: __ZNK9__gnu_cxx17__normal_iteratorIPcNSt7__cxx1112basic_stringIcSt11char_traitsIcESaIcEEEE4baseEv, symObjAddr: 0x1334, symBinAddr: 0x100003DEC, symSize: 0x14 }
  - { offset: 0x258A7, size: 0x8, addend: 0x0, symName: __ZNSt12_Vector_baseIiSaIiEE19_M_get_Tp_allocatorEv, symObjAddr: 0x1320, symBinAddr: 0x100003DD8, symSize: 0x14 }
  - { offset: 0x258D1, size: 0x8, addend: 0x0, symName: __ZNSt12_Vector_baseIiSaIiEE13_M_deallocateEPim, symObjAddr: 0x12C8, symBinAddr: 0x100003D80, symSize: 0x58 }
  - { offset: 0x25977, size: 0x8, addend: 0x0, symName: __ZNSt15__new_allocatorIiED2Ev, symObjAddr: 0x12B4, symBinAddr: 0x100003D6C, symSize: 0x14 }
  - { offset: 0x259B7, size: 0x8, addend: 0x0, symName: __ZNSt12_Vector_baseIiSaIiEE17_Vector_impl_dataC2Ev, symObjAddr: 0x1288, symBinAddr: 0x100003D40, symSize: 0x2C }
  - { offset: 0x259F3, size: 0x8, addend: 0x0, symName: __ZNK9__gnu_cxx17__normal_iteratorIPiSt6vectorIiSaIiEEE4baseEv, symObjAddr: 0x1274, symBinAddr: 0x100003D2C, symSize: 0x14 }
  - { offset: 0x25A45, size: 0x8, addend: 0x0, symName: __ZN9__gnu_cxx17__normal_iteratorIPiSt6vectorIiSaIiEEEC1ERKS1_, symObjAddr: 0x124C, symBinAddr: 0x100003D04, symSize: 0x28 }
  - { offset: 0x25A74, size: 0x8, addend: 0x0, symName: __ZNSt8_Rb_treeISt6vectorIiSaIiEES2_St9_IdentityIS2_ESt4lessIS2_ESaIS2_EE8_M_beginEv, symObjAddr: 0x1230, symBinAddr: 0x100003CE8, symSize: 0x1C }
  - { offset: 0x25A9E, size: 0x8, addend: 0x0, symName: __ZNSt8_Rb_treeISt6vectorIiSaIiEES2_St9_IdentityIS2_ESt4lessIS2_ESaIS2_EE8_M_eraseEPSt13_Rb_tree_nodeIS2_E, symObjAddr: 0x11CC, symBinAddr: 0x100003C84, symSize: 0x64 }
  - { offset: 0x25B21, size: 0x8, addend: 0x0, symName: __ZNSt15__new_allocatorISt13_Rb_tree_nodeISt6vectorIiSaIiEEEED2Ev, symObjAddr: 0x11B8, symBinAddr: 0x100003C70, symSize: 0x14 }
  - { offset: 0x25B61, size: 0x8, addend: 0x0, symName: __ZNSt20_Rb_tree_key_compareISt4lessISt6vectorIiSaIiEEEEC2Ev, symObjAddr: 0x11A4, symBinAddr: 0x100003C5C, symSize: 0x14 }
  - { offset: 0x25B9F, size: 0x8, addend: 0x0, symName: __ZSt7forwardIbEOT_RNSt16remove_referenceIS0_E4typeE, symObjAddr: 0x1190, symBinAddr: 0x100003C48, symSize: 0x14 }
  - { offset: 0x25BD5, size: 0x8, addend: 0x0, symName: __ZNKSt3setISt6vectorIiSaIiEESt4lessIS2_ESaIS2_EE4sizeEv, symObjAddr: 0x1174, symBinAddr: 0x100003C2C, symSize: 0x1C }
  - { offset: 0x25C47, size: 0x8, addend: 0x0, symName: __ZNSt4pairISt6vectorIiSaIiEES2_EC1IRS2_S5_Lb1EEEOT_OT0_, symObjAddr: 0x1104, symBinAddr: 0x100003BBC, symSize: 0x70 }
  - { offset: 0x25C91, size: 0x8, addend: 0x0, symName: __ZNSt6vectorIiSaIiEE9push_backERKi, symObjAddr: 0x103C, symBinAddr: 0x100003AF4, symSize: 0xC8 }
  - { offset: 0x25D34, size: 0x8, addend: 0x0, symName: __ZN9__gnu_cxxeqIPiSt6vectorIiSaIiEEEEbRKNS_17__normal_iteratorIT_T0_EESA_, symObjAddr: 0xFF8, symBinAddr: 0x100003AB0, symSize: 0x44 }
  - { offset: 0x25D81, size: 0x8, addend: 0x0, symName: __ZSt4findIN9__gnu_cxx17__normal_iteratorIPiSt6vectorIiSaIiEEEEiET_S7_S7_RKT0_, symObjAddr: 0xFC4, symBinAddr: 0x100003A7C, symSize: 0x34 }
  - { offset: 0x25DE3, size: 0x8, addend: 0x0, symName: __ZNSt3setISt6vectorIiSaIiEESt4lessIS2_ESaIS2_EE6insertERKS2_, symObjAddr: 0xF84, symBinAddr: 0x100003A3C, symSize: 0x40 }
  - { offset: 0x25E2F, size: 0x8, addend: 0x0, symName: __ZNKSt6vectorIiSaIiEE4sizeEv, symObjAddr: 0xF5C, symBinAddr: 0x100003A14, symSize: 0x28 }
  - { offset: 0x25E59, size: 0x8, addend: 0x0, symName: __ZNSt5queueISt4pairISt6vectorIiSaIiEES3_ESt5dequeIS4_SaIS4_EEE3popEv, symObjAddr: 0xF3C, symBinAddr: 0x1000039F4, symSize: 0x20 }
  - { offset: 0x25EAB, size: 0x8, addend: 0x0, symName: __ZNSt6vectorIiSaIiEEC1ERKS1_, symObjAddr: 0xE28, symBinAddr: 0x1000038E0, symSize: 0x114 }
  - { offset: 0x25FBE, size: 0x8, addend: 0x0, symName: __ZNSt5queueISt4pairISt6vectorIiSaIiEES3_ESt5dequeIS4_SaIS4_EEE5frontEv, symObjAddr: 0xE0C, symBinAddr: 0x1000038C4, symSize: 0x1C }
  - { offset: 0x25FE8, size: 0x8, addend: 0x0, symName: __ZNKSt5queueISt4pairISt6vectorIiSaIiEES3_ESt5dequeIS4_SaIS4_EEE5emptyEv, symObjAddr: 0xDF0, symBinAddr: 0x1000038A8, symSize: 0x1C }
  - { offset: 0x26012, size: 0x8, addend: 0x0, symName: __ZNSt5queueISt4pairISt6vectorIiSaIiEES3_ESt5dequeIS4_SaIS4_EEE4pushEOS4_, symObjAddr: 0xDB4, symBinAddr: 0x10000386C, symSize: 0x3C }
  - { offset: 0x26095, size: 0x8, addend: 0x0, symName: __ZNSt4pairISt6vectorIiSaIiEES2_EC1IS2_S2_Lb1EEERKS2_S6_, symObjAddr: 0xD5C, symBinAddr: 0x100003814, symSize: 0x58 }
  - { offset: 0x26103, size: 0x8, addend: 0x0, symName: __ZNSt5dequeISt4pairISt6vectorIiSaIiEES3_ESaIS4_EED1Ev, symObjAddr: 0xCF4, symBinAddr: 0x1000037AC, symSize: 0x68 }
  - { offset: 0x26152, size: 0x8, addend: 0x0, symName: __ZNSt5queueISt4pairISt6vectorIiSaIiEES3_ESt5dequeIS4_SaIS4_EEEC1IS7_vEEv, symObjAddr: 0xCB8, symBinAddr: 0x100003770, symSize: 0x3C }
  - { offset: 0x261A0, size: 0x8, addend: 0x0, symName: __ZNSt5dequeISt4pairISt6vectorIiSaIiEES3_ESaIS4_EEC1Ev, symObjAddr: 0xC98, symBinAddr: 0x100003750, symSize: 0x20 }
  - { offset: 0x261C6, size: 0x8, addend: 0x0, symName: __ZNSt6vectorIiSaIiEE9push_backEOi, symObjAddr: 0xC68, symBinAddr: 0x100003720, symSize: 0x30 }
  - { offset: 0x26201, size: 0x8, addend: 0x0, symName: __ZNK9__gnu_cxx17__normal_iteratorIPcNSt7__cxx1112basic_stringIcSt11char_traitsIcESaIcEEEEdeEv, symObjAddr: 0xC50, symBinAddr: 0x100003708, symSize: 0x18 }
  - { offset: 0x2622B, size: 0x8, addend: 0x0, symName: __ZN9__gnu_cxx17__normal_iteratorIPcNSt7__cxx1112basic_stringIcSt11char_traitsIcESaIcEEEEppEv, symObjAddr: 0xC28, symBinAddr: 0x1000036E0, symSize: 0x28 }
  - { offset: 0x26257, size: 0x8, addend: 0x0, symName: __ZN9__gnu_cxxneIPcNSt7__cxx1112basic_stringIcSt11char_traitsIcESaIcEEEEEbRKNS_17__normal_iteratorIT_T0_EESD_, symObjAddr: 0xBE4, symBinAddr: 0x10000369C, symSize: 0x44 }
  - { offset: 0x262CC, size: 0x8, addend: 0x0, symName: __ZNSt6vectorIiSaIiEED1Ev, symObjAddr: 0xB88, symBinAddr: 0x100003640, symSize: 0x5C }
  - { offset: 0x2634C, size: 0x8, addend: 0x0, symName: __ZNSt12_Vector_baseIiSaIiEED2Ev, symObjAddr: 0xB38, symBinAddr: 0x1000035F0, symSize: 0x50 }
  - { offset: 0x263AC, size: 0x8, addend: 0x0, symName: __ZNSt12_Vector_baseIiSaIiEE12_Vector_implC1Ev, symObjAddr: 0xB00, symBinAddr: 0x1000035B8, symSize: 0x38 }
  - { offset: 0x26414, size: 0x8, addend: 0x0, symName: __ZSt3maxIiERKT_S2_S2_, symObjAddr: 0xAC8, symBinAddr: 0x100003580, symSize: 0x38 }
  - { offset: 0x2645C, size: 0x8, addend: 0x0, symName: __ZNSt6vectorIiSaIiEEixEm, symObjAddr: 0xAA0, symBinAddr: 0x100003558, symSize: 0x28 }
  - { offset: 0x26497, size: 0x8, addend: 0x0, symName: __ZNK9__gnu_cxx17__normal_iteratorIPiSt6vectorIiSaIiEEEdeEv, symObjAddr: 0xA88, symBinAddr: 0x100003540, symSize: 0x18 }
  - { offset: 0x264C1, size: 0x8, addend: 0x0, symName: __ZN9__gnu_cxx17__normal_iteratorIPiSt6vectorIiSaIiEEEppEv, symObjAddr: 0xA60, symBinAddr: 0x100003518, symSize: 0x28 }
  - { offset: 0x264E7, size: 0x8, addend: 0x0, symName: __ZN9__gnu_cxxneIPiSt6vectorIiSaIiEEEEbRKNS_17__normal_iteratorIT_T0_EESA_, symObjAddr: 0xA1C, symBinAddr: 0x1000034D4, symSize: 0x44 }
  - { offset: 0x26538, size: 0x8, addend: 0x0, symName: __ZNSt6vectorIiSaIiEE3endEv, symObjAddr: 0x9F4, symBinAddr: 0x1000034AC, symSize: 0x28 }
  - { offset: 0x26562, size: 0x8, addend: 0x0, symName: __ZNSt6vectorIiSaIiEE5beginEv, symObjAddr: 0x9D0, symBinAddr: 0x100003488, symSize: 0x24 }
  - { offset: 0x265B0, size: 0x8, addend: 0x0, symName: __ZNSt8_Rb_treeISt6vectorIiSaIiEES2_St9_IdentityIS2_ESt4lessIS2_ESaIS2_EED1Ev, symObjAddr: 0x99C, symBinAddr: 0x100003454, symSize: 0x34 }
  - { offset: 0x26610, size: 0x8, addend: 0x0, symName: __ZNSt8_Rb_treeISt6vectorIiSaIiEES2_St9_IdentityIS2_ESt4lessIS2_ESaIS2_EE13_Rb_tree_implIS6_Lb1EEC1Ev, symObjAddr: 0x958, symBinAddr: 0x100003410, symSize: 0x44 }
  - { offset: 0x2667F, size: 0x8, addend: 0x0, symName: __ZSt7forwardIiEOT_RNSt16remove_referenceIS0_E4typeE, symObjAddr: 0x944, symBinAddr: 0x1000033FC, symSize: 0x14 }
  - { offset: 0x266B1, size: 0x8, addend: 0x0, symName: __ZSt3maxImERKT_S2_S2_, symObjAddr: 0x90C, symBinAddr: 0x1000033C4, symSize: 0x38 }
  - { offset: 0x266FC, size: 0x8, addend: 0x0, symName: _main, symObjAddr: 0x3E8, symBinAddr: 0x100002EA0, symSize: 0x524 }
  - { offset: 0x26908, size: 0x8, addend: 0x0, symName: __ZNSt10__pair_getILm1EE10__move_getISt6vectorIiSaIiEES4_EEOT0_OSt4pairIT_S5_E, symObjAddr: 0x3C8, symBinAddr: 0x100002E80, symSize: 0x20 }
  - { offset: 0x26944, size: 0x8, addend: 0x0, symName: __ZSt3getILm1ESt6vectorIiSaIiEES2_EONSt13tuple_elementIXT_ESt4pairIT0_T1_EE4typeEOS7_, symObjAddr: 0x3A8, symBinAddr: 0x100002E60, symSize: 0x20 }
  - { offset: 0x26990, size: 0x8, addend: 0x0, symName: __ZSt7forwardISt6vectorIiSaIiEEEOT_RNSt16remove_referenceIS3_E4typeE, symObjAddr: 0x394, symBinAddr: 0x100002E4C, symSize: 0x14 }
  - { offset: 0x269C2, size: 0x8, addend: 0x0, symName: __ZNSt10__pair_getILm0EE10__move_getISt6vectorIiSaIiEES4_EEOT_OSt4pairIS5_T0_E, symObjAddr: 0x378, symBinAddr: 0x100002E30, symSize: 0x1C }
  - { offset: 0x26A05, size: 0x8, addend: 0x0, symName: __ZSt4moveIRSt4pairISt6vectorIiSaIiEES3_EEONSt16remove_referenceIT_E4typeEOS7_, symObjAddr: 0x364, symBinAddr: 0x100002E1C, symSize: 0x14 }
  - { offset: 0x26A37, size: 0x8, addend: 0x0, symName: __ZSt3getILm0ESt6vectorIiSaIiEES2_EONSt13tuple_elementIXT_ESt4pairIT0_T1_EE4typeEOS7_, symObjAddr: 0x344, symBinAddr: 0x100002DFC, symSize: 0x20 }
  - { offset: 0x26AA0, size: 0x8, addend: 0x0, symName: __ZNSt4pairISt6vectorIiSaIiEES2_EC1ERKS3_, symObjAddr: 0x2E4, symBinAddr: 0x100002D9C, symSize: 0x60 }
  - { offset: 0x26AF7, size: 0x8, addend: 0x0, symName: __ZNSt4pairISt6vectorIiSaIiEES2_ED1Ev, symObjAddr: 0x2B8, symBinAddr: 0x100002D70, symSize: 0x2C }
  - { offset: 0x26B44, size: 0x8, addend: 0x0, symName: __ZNSt5queueISt4pairISt6vectorIiSaIiEES3_ESt5dequeIS4_SaIS4_EEED1Ev, symObjAddr: 0x298, symBinAddr: 0x100002D50, symSize: 0x20 }
  - { offset: 0x26B84, size: 0x8, addend: 0x0, symName: __ZNSt6vectorIiSaIiEEC1Ev, symObjAddr: 0x278, symBinAddr: 0x100002D30, symSize: 0x20 }
  - { offset: 0x26BC4, size: 0x8, addend: 0x0, symName: __ZNSt12_Vector_baseIiSaIiEEC2Ev, symObjAddr: 0x258, symBinAddr: 0x100002D10, symSize: 0x20 }
  - { offset: 0x26C11, size: 0x8, addend: 0x0, symName: __ZNSt12_Vector_baseIiSaIiEE12_Vector_implD1Ev, symObjAddr: 0x22C, symBinAddr: 0x100002CE4, symSize: 0x2C }
  - { offset: 0x26C61, size: 0x8, addend: 0x0, symName: __Z3lisSt6vectorIiSaIiEES1_i, symObjAddr: 0x170, symBinAddr: 0x100002C28, symSize: 0xBC }
  - { offset: 0x26D25, size: 0x8, addend: 0x0, symName: __ZNSt3setISt6vectorIiSaIiEESt4lessIS2_ESaIS2_EEC1Ev, symObjAddr: 0x150, symBinAddr: 0x100002C08, symSize: 0x20 }
  - { offset: 0x26D65, size: 0x8, addend: 0x0, symName: __ZNSt8_Rb_treeISt6vectorIiSaIiEES2_St9_IdentityIS2_ESt4lessIS2_ESaIS2_EEC1Ev, symObjAddr: 0x130, symBinAddr: 0x100002BE8, symSize: 0x20 }
  - { offset: 0x26DB3, size: 0x8, addend: 0x0, symName: __ZNSt8_Rb_treeISt6vectorIiSaIiEES2_St9_IdentityIS2_ESt4lessIS2_ESaIS2_EE13_Rb_tree_implIS6_Lb1EED1Ev, symObjAddr: 0x104, symBinAddr: 0x100002BBC, symSize: 0x2C }
  - { offset: 0x26DFD, size: 0x8, addend: 0x0, symName: __ZNSt15_Rb_tree_header8_M_resetEv, symObjAddr: 0xC8, symBinAddr: 0x100002B80, symSize: 0x3C }
  - { offset: 0x26E41, size: 0x8, addend: 0x0, symName: __ZNSt15_Rb_tree_headerC2Ev, symObjAddr: 0xA0, symBinAddr: 0x100002B58, symSize: 0x28 }
  - { offset: 0x26E63, size: 0x8, addend: 0x0, symName: __ZSt16__deque_buf_sizem, symObjAddr: 0x70, symBinAddr: 0x100002B28, symSize: 0x30 }
  - { offset: 0x26E8C, size: 0x8, addend: 0x0, symName: __ZSt3minImERKT_S2_S2_, symObjAddr: 0x38, symBinAddr: 0x100002AF0, symSize: 0x38 }
  - { offset: 0x26ED5, size: 0x8, addend: 0x0, symName: __ZdlPvS_, symObjAddr: 0x20, symBinAddr: 0x100002AD8, symSize: 0x18 }
  - { offset: 0x26F0B, size: 0x8, addend: 0x0, symName: __ZnwmPv, symObjAddr: 0x8, symBinAddr: 0x100002AC0, symSize: 0x18 }
  - { offset: 0x26F3D, size: 0x8, addend: 0x0, symName: __ZN9__gnu_cxx5__ops16__iter_less_iterEv, symObjAddr: 0x0, symBinAddr: 0x100002AB8, symSize: 0x8 }
...
