---
triple:          'arm64-apple-darwin'
binary-path:     '/Users/matthew/Library/CloudStorage/GoogleDrive-mattsoh100@gmail.com/My Drive/Mac/Coding/Olympiad/BOIT2/tempCodeRunnerFile'
relocations:
  - { offset: 0x1DC58, size: 0x8, addend: 0x0, symName: __ZStL8__ioinit, symObjAddr: 0x8EB98, symBinAddr: 0x100010004, symSize: 0x0 }
  - { offset: 0x1DF9E, size: 0x8, addend: 0x0, symName: _trav, symObjAddr: 0x8EBA0, symBinAddr: 0x100010008, symSize: 0x0 }
  - { offset: 0x1DFB5, size: 0x8, addend: 0x0, symName: _per, symObjAddr: 0x52C8, symBinAddr: 0x100010000, symSize: 0x0 }
  - { offset: 0x1E178, size: 0x8, addend: 0x0, symName: _board, symObjAddr: 0x8EBC8, symBinAddr: 0x100010030, symSize: 0x0 }
  - { offset: 0x1E285, size: 0x8, addend: 0x0, symName: _poses, symObjAddr: 0x8EBF8, symBinAddr: 0x100010060, symSize: 0x0 }
  - { offset: 0x1E645, size: 0x8, addend: 0x0, symName: __ZNSt3mapISt4pairIiiEiSt4lessIS1_ESaIS0_IKS1_iEEED1Ev, symObjAddr: 0x52A0, symBinAddr: 0x1000084FC, symSize: 0x20 }
  - { offset: 0x1E667, size: 0x8, addend: 0x0, symName: __ZNSt10_Head_baseILm0ERKSt4pairIiiELb0EE7_M_headERS4_, symObjAddr: 0x5288, symBinAddr: 0x1000084E4, symSize: 0x18 }
  - { offset: 0x1E690, size: 0x8, addend: 0x0, symName: __ZNSt10_Head_baseILm0EOSt4pairIiiELb0EE7_M_headERS3_, symObjAddr: 0x5270, symBinAddr: 0x1000084CC, symSize: 0x18 }
  - { offset: 0x1E6B9, size: 0x8, addend: 0x0, symName: __ZNSt11_Tuple_implILm0EJRKSt4pairIiiEEE7_M_headERS4_, symObjAddr: 0x5254, symBinAddr: 0x1000084B0, symSize: 0x1C }
  - { offset: 0x1E6E3, size: 0x8, addend: 0x0, symName: __ZNSt11_Tuple_implILm0EJOSt4pairIiiEEE7_M_headERS3_, symObjAddr: 0x5238, symBinAddr: 0x100008494, symSize: 0x1C }
  - { offset: 0x1E70D, size: 0x8, addend: 0x0, symName: __ZSt12__get_helperILm0ERKSt4pairIiiEJEERT0_RSt11_Tuple_implIXT_EJS4_DpT1_EE, symObjAddr: 0x521C, symBinAddr: 0x100008478, symSize: 0x1C }
  - { offset: 0x1E74F, size: 0x8, addend: 0x0, symName: __ZSt12__get_helperILm0EOSt4pairIiiEJEERT0_RSt11_Tuple_implIXT_EJS3_DpT1_EE, symObjAddr: 0x5200, symBinAddr: 0x10000845C, symSize: 0x1C }
  - { offset: 0x1E797, size: 0x8, addend: 0x0, symName: __ZSt7forwardIRKSt4pairIiiEEOT_RNSt16remove_referenceIS4_E4typeE, symObjAddr: 0x51EC, symBinAddr: 0x100008448, symSize: 0x14 }
  - { offset: 0x1E7C9, size: 0x8, addend: 0x0, symName: __ZSt3getILm0EJRKSt4pairIiiEEERNSt13tuple_elementIXT_ESt5tupleIJDpT0_EEE4typeERS8_, symObjAddr: 0x51D0, symBinAddr: 0x10000842C, symSize: 0x1C }
  - { offset: 0x1E80E, size: 0x8, addend: 0x0, symName: __ZSt7forwardIOSt4pairIiiEEOT_RNSt16remove_referenceIS3_E4typeE, symObjAddr: 0x51BC, symBinAddr: 0x100008418, symSize: 0x14 }
  - { offset: 0x1E840, size: 0x8, addend: 0x0, symName: __ZSt3getILm0EJOSt4pairIiiEEERNSt13tuple_elementIXT_ESt5tupleIJDpT0_EEE4typeERS7_, symObjAddr: 0x51A0, symBinAddr: 0x1000083FC, symSize: 0x1C }
  - { offset: 0x1E8EC, size: 0x8, addend: 0x0, symName: __ZNSt4pairIKS_IiiEiEC1IJRS1_EJLm0EEJEJEEERSt5tupleIJDpT_EERS5_IJDpT1_EESt12_Index_tupleIJXspT0_EEESE_IJXspT2_EEE, symObjAddr: 0x5154, symBinAddr: 0x1000083B0, symSize: 0x4C }
  - { offset: 0x1E9C8, size: 0x8, addend: 0x0, symName: __ZNSt4pairIKS_IiiEiEC1IJOS0_EJLm0EEJEJEEERSt5tupleIJDpT_EERS5_IJDpT1_EESt12_Index_tupleIJXspT0_EEESE_IJXspT2_EEE, symObjAddr: 0x5108, symBinAddr: 0x100008364, symSize: 0x4C }
  - { offset: 0x1EA86, size: 0x8, addend: 0x0, symName: __ZNSt4pairIKS_IiiEiEC1IJRS1_EJEEESt21piecewise_construct_tSt5tupleIJDpT_EES6_IJDpT0_EE, symObjAddr: 0x50CC, symBinAddr: 0x100008328, symSize: 0x3C }
  - { offset: 0x1EB00, size: 0x8, addend: 0x0, symName: __ZNSt11_Tuple_implILm0EJRKSt4pairIiiEEEC2EOS4_, symObjAddr: 0x50A4, symBinAddr: 0x100008300, symSize: 0x28 }
  - { offset: 0x1EB7A, size: 0x8, addend: 0x0, symName: __ZNSt4pairIKS_IiiEiEC1IJOS0_EJEEESt21piecewise_construct_tSt5tupleIJDpT_EES6_IJDpT0_EE, symObjAddr: 0x5068, symBinAddr: 0x1000082C4, symSize: 0x3C }
  - { offset: 0x1EBF4, size: 0x8, addend: 0x0, symName: __ZNSt11_Tuple_implILm0EJOSt4pairIiiEEEC2EOS3_, symObjAddr: 0x5040, symBinAddr: 0x10000829C, symSize: 0x28 }
  - { offset: 0x1ECA5, size: 0x8, addend: 0x0, symName: __ZNSt5tupleIJRKSt4pairIiiEEEC1EOS4_, symObjAddr: 0x5018, symBinAddr: 0x100008274, symSize: 0x28 }
  - { offset: 0x1ECD0, size: 0x8, addend: 0x0, symName: __ZSt8__memcmpIiiEiPKT_PKT0_m, symObjAddr: 0x4FE4, symBinAddr: 0x100008240, symSize: 0x34 }
  - { offset: 0x1EDA4, size: 0x8, addend: 0x0, symName: __ZNSt5tupleIJOSt4pairIiiEEEC1EOS3_, symObjAddr: 0x4FBC, symBinAddr: 0x100008218, symSize: 0x28 }
  - { offset: 0x1EDD3, size: 0x8, addend: 0x0, symName: __ZNSt15__new_allocatorISt13_Rb_tree_nodeISt4pairIKS1_IiiEiEEE8allocateEmPKv, symObjAddr: 0x4F2C, symBinAddr: 0x100008188, symSize: 0x90 }
  - { offset: 0x1EE63, size: 0x8, addend: 0x0, symName: __ZNK9__gnu_cxx16__aligned_membufISt4pairIKS1_IiiEiEE7_M_addrEv, symObjAddr: 0x4F18, symBinAddr: 0x100008174, symSize: 0x14 }
  - { offset: 0x1EE89, size: 0x8, addend: 0x0, symName: __ZNSt10_Head_baseILm2EiLb0EE7_M_headERKS0_, symObjAddr: 0x4F04, symBinAddr: 0x100008160, symSize: 0x14 }
  - { offset: 0x1EF0A, size: 0x8, addend: 0x0, symName: __ZNSt7__equalILb1EE5equalIiEEbPKT_S4_S4_, symObjAddr: 0x4EA4, symBinAddr: 0x100008100, symSize: 0x60 }
  - { offset: 0x1EF8F, size: 0x8, addend: 0x0, symName: __ZSt7forwardIRPSt13_Rb_tree_nodeISt4pairIKS1_IiiEiEEEOT_RNSt16remove_referenceIS8_E4typeE, symObjAddr: 0x4E90, symBinAddr: 0x1000080EC, symSize: 0x14 }
  - { offset: 0x1F041, size: 0x8, addend: 0x0, symName: __ZNK9__gnu_cxx16__aligned_membufISt4pairIKS1_IiiEiEE6_M_ptrEv, symObjAddr: 0x4E74, symBinAddr: 0x1000080D0, symSize: 0x1C }
  - { offset: 0x1F06B, size: 0x8, addend: 0x0, symName: __ZNSt15__new_allocatorISt13_Rb_tree_nodeISt4pairIKS1_IiiEiEEE10deallocateEPS5_m, symObjAddr: 0x4E38, symBinAddr: 0x100008094, symSize: 0x3C }
  - { offset: 0x1F0DD, size: 0x8, addend: 0x0, symName: __ZNSt11_Tuple_implILm2EJiEE7_M_headERKS0_, symObjAddr: 0x4E1C, symBinAddr: 0x100008078, symSize: 0x1C }
  - { offset: 0x1F107, size: 0x8, addend: 0x0, symName: __ZNSt10_Head_baseILm1EiLb0EE7_M_headERKS0_, symObjAddr: 0x4E08, symBinAddr: 0x100008064, symSize: 0x14 }
  - { offset: 0x1F134, size: 0x8, addend: 0x0, symName: __ZNSt8_Rb_treeISt4pairIiiES0_IKS1_iESt10_Select1stIS3_ESt4lessIS1_ESaIS3_EE17_M_construct_nodeIJRKSt21piecewise_construct_tSt5tupleIJRS2_EESE_IJEEEEEvPSt13_Rb_tree_nodeIS3_EDpOT_, symObjAddr: 0x4C8C, symBinAddr: 0x100007EE8, symSize: 0x17C }
  - { offset: 0x1F265, size: 0x8, addend: 0x0, symName: __ZNSt10_Head_baseILm2EiLb0EEC2IRiEEOT_, symObjAddr: 0x4C5C, symBinAddr: 0x100007EB8, symSize: 0x30 }
  - { offset: 0x1F299, size: 0x8, addend: 0x0, symName: __ZSt12__equal_aux1IPKiS1_EbT_S2_T0_, symObjAddr: 0x4C28, symBinAddr: 0x100007E84, symSize: 0x34 }
  - { offset: 0x1F308, size: 0x8, addend: 0x0, symName: __ZSt12__niter_baseIPKiET_S2_, symObjAddr: 0x4C14, symBinAddr: 0x100007E70, symSize: 0x14 }
  - { offset: 0x1F36F, size: 0x8, addend: 0x0, symName: __ZNSt10_Head_baseILm2EiLb0EEC2IiEEOT_, symObjAddr: 0x4BE4, symBinAddr: 0x100007E40, symSize: 0x30 }
  - { offset: 0x1F3A9, size: 0x8, addend: 0x0, symName: __ZSt7forwardIRPSt18_Rb_tree_node_baseEOT_RNSt16remove_referenceIS3_E4typeE, symObjAddr: 0x4BD0, symBinAddr: 0x100007E2C, symSize: 0x14 }
  - { offset: 0x1F427, size: 0x8, addend: 0x0, symName: __ZNSt4pairIPSt18_Rb_tree_node_baseS1_EC1IRPSt13_Rb_tree_nodeIS_IKS_IiiEiEERS1_Lb1EEEOT_OT0_, symObjAddr: 0x4B88, symBinAddr: 0x100007DE4, symSize: 0x48 }
  - { offset: 0x1F471, size: 0x8, addend: 0x0, symName: __ZNSt8_Rb_treeISt4pairIiiES0_IKS1_iESt10_Select1stIS3_ESt4lessIS1_ESaIS3_EE17_M_construct_nodeIJRKSt21piecewise_construct_tSt5tupleIJOS1_EESE_IJEEEEEvPSt13_Rb_tree_nodeIS3_EDpOT_, symObjAddr: 0x4A0C, symBinAddr: 0x100007C68, symSize: 0x17C }
  - { offset: 0x1F572, size: 0x8, addend: 0x0, symName: __ZNSt8_Rb_treeISt4pairIiiES0_IKS1_iESt10_Select1stIS3_ESt4lessIS1_ESaIS3_EE11_M_get_nodeEv, symObjAddr: 0x49D0, symBinAddr: 0x100007C2C, symSize: 0x3C }
  - { offset: 0x1F5F9, size: 0x8, addend: 0x0, symName: __ZNSt10_Head_baseILm0EOSt4pairIiiELb0EEC2IS1_EEOT_, symObjAddr: 0x49A0, symBinAddr: 0x100007BFC, symSize: 0x30 }
  - { offset: 0x1F631, size: 0x8, addend: 0x0, symName: __ZNKSt10_Select1stISt4pairIKS0_IiiEiEEclERKS3_, symObjAddr: 0x4988, symBinAddr: 0x100007BE4, symSize: 0x18 }
  - { offset: 0x1F66C, size: 0x8, addend: 0x0, symName: __ZNKSt13_Rb_tree_nodeISt4pairIKS0_IiiEiEE9_M_valptrEv, symObjAddr: 0x4968, symBinAddr: 0x100007BC4, symSize: 0x20 }
  - { offset: 0x1F6F5, size: 0x8, addend: 0x0, symName: __ZNSt8_Rb_treeISt4pairIiiES0_IKS1_iESt10_Select1stIS3_ESt4lessIS1_ESaIS3_EE21_M_get_Node_allocatorEv, symObjAddr: 0x4954, symBinAddr: 0x100007BB0, symSize: 0x14 }
  - { offset: 0x1F74F, size: 0x8, addend: 0x0, symName: __ZNSt10_Head_baseILm1EiLb0EEC2IiEEOT_, symObjAddr: 0x4924, symBinAddr: 0x100007B80, symSize: 0x30 }
  - { offset: 0x1F787, size: 0x8, addend: 0x0, symName: __ZNSt11_Tuple_implILm2EJiEE9_M_assignIiEEvRKS_ILm2EJT_EE, symObjAddr: 0x48E8, symBinAddr: 0x100007B44, symSize: 0x3C }
  - { offset: 0x1F7C7, size: 0x8, addend: 0x0, symName: __ZNSt11_Tuple_implILm1EJiiEE7_M_tailERKS0_, symObjAddr: 0x48D4, symBinAddr: 0x100007B30, symSize: 0x14 }
  - { offset: 0x1F7F1, size: 0x8, addend: 0x0, symName: __ZNSt11_Tuple_implILm1EJiiEE7_M_headERKS0_, symObjAddr: 0x48B4, symBinAddr: 0x100007B10, symSize: 0x20 }
  - { offset: 0x1F81B, size: 0x8, addend: 0x0, symName: __ZNSt10_Head_baseILm0EiLb0EE7_M_headERKS0_, symObjAddr: 0x48A0, symBinAddr: 0x100007AFC, symSize: 0x14 }
  - { offset: 0x1F848, size: 0x8, addend: 0x0, symName: __ZNSt8_Rb_treeISt4pairIiiES0_IKS1_iESt10_Select1stIS3_ESt4lessIS1_ESaIS3_EE14_M_create_nodeIJRKSt21piecewise_construct_tSt5tupleIJRS2_EESE_IJEEEEEPSt13_Rb_tree_nodeIS3_EDpOT_, symObjAddr: 0x4830, symBinAddr: 0x100007A8C, symSize: 0x70 }
  - { offset: 0x1F8E1, size: 0x8, addend: 0x0, symName: __ZNSt10_Head_baseILm0ERKSt4pairIiiELb0EEC2ES3_, symObjAddr: 0x480C, symBinAddr: 0x100007A68, symSize: 0x24 }
  - { offset: 0x1F910, size: 0x8, addend: 0x0, symName: __ZNSt11_Tuple_implILm2EJiEE9_M_assignIiEEvOS_ILm2EJT_EE, symObjAddr: 0x47CC, symBinAddr: 0x100007A28, symSize: 0x40 }
  - { offset: 0x1F957, size: 0x8, addend: 0x0, symName: __ZSt4moveIRSt11_Tuple_implILm2EJiEEEONSt16remove_referenceIT_E4typeEOS4_, symObjAddr: 0x47B8, symBinAddr: 0x100007A14, symSize: 0x14 }
  - { offset: 0x1F989, size: 0x8, addend: 0x0, symName: __ZNSt11_Tuple_implILm1EJiiEE7_M_tailERS0_, symObjAddr: 0x47A4, symBinAddr: 0x100007A00, symSize: 0x14 }
  - { offset: 0x1F9E8, size: 0x8, addend: 0x0, symName: __ZNSt11_Tuple_implILm2EJiEEC2IRiEEOT_, symObjAddr: 0x4768, symBinAddr: 0x1000079C4, symSize: 0x3C }
  - { offset: 0x1FA1C, size: 0x8, addend: 0x0, symName: __ZNSt10_Head_baseILm2EiLb0EE7_M_headERS0_, symObjAddr: 0x4754, symBinAddr: 0x1000079B0, symSize: 0x14 }
  - { offset: 0x1FA45, size: 0x8, addend: 0x0, symName: __ZNSt10_Head_baseILm1EiLb0EE7_M_headERS0_, symObjAddr: 0x4740, symBinAddr: 0x10000799C, symSize: 0x14 }
  - { offset: 0x1FA6E, size: 0x8, addend: 0x0, symName: __ZNSt10_Head_baseILm0EiLb0EE7_M_headERS0_, symObjAddr: 0x472C, symBinAddr: 0x100007988, symSize: 0x14 }
  - { offset: 0x1FA97, size: 0x8, addend: 0x0, symName: __ZSt11__equal_auxIPKiS1_EbT_S2_T0_, symObjAddr: 0x46D8, symBinAddr: 0x100007934, symSize: 0x54 }
  - { offset: 0x1FAF9, size: 0x8, addend: 0x0, symName: __ZNKSt5arrayIiLm3EE4dataEv, symObjAddr: 0x46C4, symBinAddr: 0x100007920, symSize: 0x14 }
  - { offset: 0x1FB53, size: 0x8, addend: 0x0, symName: __ZNSt10_Head_baseILm1EiLb0EEC2IRiEEOT_, symObjAddr: 0x4694, symBinAddr: 0x1000078F0, symSize: 0x30 }
  - { offset: 0x1FBBC, size: 0x8, addend: 0x0, symName: __ZNSt11_Tuple_implILm2EJiEEC2IiEEOT_, symObjAddr: 0x4658, symBinAddr: 0x1000078B4, symSize: 0x3C }
  - { offset: 0x1FBF8, size: 0x8, addend: 0x0, symName: __ZN9__gnu_cxx16__aligned_membufISt4pairIKS1_IiiEiEE7_M_addrEv, symObjAddr: 0x4644, symBinAddr: 0x1000078A0, symSize: 0x14 }
  - { offset: 0x1FC22, size: 0x8, addend: 0x0, symName: __ZNSt8_Rb_treeISt4pairIiiES0_IKS1_iESt10_Select1stIS3_ESt4lessIS1_ESaIS3_EE14_M_insert_nodeEPSt18_Rb_tree_node_baseSB_PSt13_Rb_tree_nodeIS3_E, symObjAddr: 0x4574, symBinAddr: 0x1000077D0, symSize: 0xD0 }
  - { offset: 0x1FC90, size: 0x8, addend: 0x0, symName: __ZNSt17_Rb_tree_iteratorISt4pairIKS0_IiiEiEEmmEv, symObjAddr: 0x4544, symBinAddr: 0x1000077A0, symSize: 0x30 }
  - { offset: 0x1FD02, size: 0x8, addend: 0x0, symName: __ZNSt4pairIPSt18_Rb_tree_node_baseS1_EC1IRS1_S4_Lb1EEEOT_OT0_, symObjAddr: 0x44FC, symBinAddr: 0x100007758, symSize: 0x48 }
  - { offset: 0x1FD4C, size: 0x8, addend: 0x0, symName: __ZNSt8_Rb_treeISt4pairIiiES0_IKS1_iESt10_Select1stIS3_ESt4lessIS1_ESaIS3_EE11_M_leftmostEv, symObjAddr: 0x44E4, symBinAddr: 0x100007740, symSize: 0x18 }
  - { offset: 0x1FD76, size: 0x8, addend: 0x0, symName: __ZNSt8_Rb_treeISt4pairIiiES0_IKS1_iESt10_Select1stIS3_ESt4lessIS1_ESaIS3_EE24_M_get_insert_unique_posERS2_, symObjAddr: 0x438C, symBinAddr: 0x1000075E8, symSize: 0x158 }
  - { offset: 0x1FE42, size: 0x8, addend: 0x0, symName: __ZNSt4pairIPSt18_Rb_tree_node_baseS1_EC1IS1_S1_Lb1EEERKS1_S5_, symObjAddr: 0x4350, symBinAddr: 0x1000075AC, symSize: 0x3C }
  - { offset: 0x1FE8C, size: 0x8, addend: 0x0, symName: __ZNSt8_Rb_treeISt4pairIiiES0_IKS1_iESt10_Select1stIS3_ESt4lessIS1_ESaIS3_EE12_M_rightmostEv, symObjAddr: 0x4338, symBinAddr: 0x100007594, symSize: 0x18 }
  - { offset: 0x1FEB6, size: 0x8, addend: 0x0, symName: __ZNKSt8_Rb_treeISt4pairIiiES0_IKS1_iESt10_Select1stIS3_ESt4lessIS1_ESaIS3_EE4sizeEv, symObjAddr: 0x4320, symBinAddr: 0x10000757C, symSize: 0x18 }
  - { offset: 0x1FEE0, size: 0x8, addend: 0x0, symName: __ZNKSt23_Rb_tree_const_iteratorISt4pairIKS0_IiiEiEE13_M_const_castEv, symObjAddr: 0x42F8, symBinAddr: 0x100007554, symSize: 0x28 }
  - { offset: 0x1FF0A, size: 0x8, addend: 0x0, symName: __ZNSt8_Rb_treeISt4pairIiiES0_IKS1_iESt10_Select1stIS3_ESt4lessIS1_ESaIS3_EE14_M_create_nodeIJRKSt21piecewise_construct_tSt5tupleIJOS1_EESE_IJEEEEEPSt13_Rb_tree_nodeIS3_EDpOT_, symObjAddr: 0x4288, symBinAddr: 0x1000074E4, symSize: 0x70 }
  - { offset: 0x1FFAD, size: 0x8, addend: 0x0, symName: __ZNSt11_Tuple_implILm0EJOSt4pairIiiEEEC2IS1_EEOT_, symObjAddr: 0x424C, symBinAddr: 0x1000074A8, symSize: 0x3C }
  - { offset: 0x1FFE5, size: 0x8, addend: 0x0, symName: __ZNSt8_Rb_treeISt4pairIiiES0_IKS1_iESt10_Select1stIS3_ESt4lessIS1_ESaIS3_EE14_M_lower_boundEPSt13_Rb_tree_nodeIS3_EPSt18_Rb_tree_node_baseRS2_, symObjAddr: 0x41B0, symBinAddr: 0x10000740C, symSize: 0x9C }
  - { offset: 0x20042, size: 0x8, addend: 0x0, symName: __ZNSt8_Rb_treeISt4pairIiiES0_IKS1_iESt10_Select1stIS3_ESt4lessIS1_ESaIS3_EE6_M_endEv, symObjAddr: 0x4198, symBinAddr: 0x1000073F4, symSize: 0x18 }
  - { offset: 0x20068, size: 0x8, addend: 0x0, symName: __ZNSt8_Rb_treeISt4pairIiiES0_IKS1_iESt10_Select1stIS3_ESt4lessIS1_ESaIS3_EE8_S_rightEPKSt18_Rb_tree_node_base, symObjAddr: 0x4180, symBinAddr: 0x1000073DC, symSize: 0x18 }
  - { offset: 0x20092, size: 0x8, addend: 0x0, symName: __ZNSt8_Rb_treeISt4pairIiiES0_IKS1_iESt10_Select1stIS3_ESt4lessIS1_ESaIS3_EE7_S_leftEPKSt18_Rb_tree_node_base, symObjAddr: 0x4168, symBinAddr: 0x1000073C4, symSize: 0x18 }
  - { offset: 0x200BC, size: 0x8, addend: 0x0, symName: __ZNSt8_Rb_treeISt4pairIiiES0_IKS1_iESt10_Select1stIS3_ESt4lessIS1_ESaIS3_EE6_S_keyEPKSt13_Rb_tree_nodeIS3_E, symObjAddr: 0x4140, symBinAddr: 0x10000739C, symSize: 0x28 }
  - { offset: 0x200EA, size: 0x8, addend: 0x0, symName: __ZNSt8_Rb_treeISt4pairIiiES0_IKS1_iESt10_Select1stIS3_ESt4lessIS1_ESaIS3_EE11_M_put_nodeEPSt13_Rb_tree_nodeIS3_E, symObjAddr: 0x40F4, symBinAddr: 0x100007350, symSize: 0x4C }
  - { offset: 0x2015B, size: 0x8, addend: 0x0, symName: __ZNSt8_Rb_treeISt4pairIiiES0_IKS1_iESt10_Select1stIS3_ESt4lessIS1_ESaIS3_EE15_M_destroy_nodeEPSt13_Rb_tree_nodeIS3_E, symObjAddr: 0x409C, symBinAddr: 0x1000072F8, symSize: 0x58 }
  - { offset: 0x20220, size: 0x8, addend: 0x0, symName: __ZNSt10_Head_baseILm0EiLb0EEC2IiEEOT_, symObjAddr: 0x406C, symBinAddr: 0x1000072C8, symSize: 0x30 }
  - { offset: 0x202A0, size: 0x8, addend: 0x0, symName: __ZNSt11_Tuple_implILm1EJiiEEC2IiJiEvEEOT_DpOT0_, symObjAddr: 0x4010, symBinAddr: 0x10000726C, symSize: 0x5C }
  - { offset: 0x202F3, size: 0x8, addend: 0x0, symName: __ZNSt11_Tuple_implILm1EJiiEE9_M_assignIJiiEEEvRKS_ILm1EJDpT_EE, symObjAddr: 0x3FB4, symBinAddr: 0x100007210, symSize: 0x5C }
  - { offset: 0x2033A, size: 0x8, addend: 0x0, symName: __ZNSt11_Tuple_implILm0EJiiiEE7_M_tailERKS0_, symObjAddr: 0x3FA0, symBinAddr: 0x1000071FC, symSize: 0x14 }
  - { offset: 0x20364, size: 0x8, addend: 0x0, symName: __ZNSt11_Tuple_implILm0EJiiiEE7_M_headERKS0_, symObjAddr: 0x3F80, symBinAddr: 0x1000071DC, symSize: 0x20 }
  - { offset: 0x203E5, size: 0x8, addend: 0x0, symName: __ZNSt8_Rb_treeISt4pairIiiES0_IKS1_iESt10_Select1stIS3_ESt4lessIS1_ESaIS3_EE10_Auto_nodeC1IJRKSt21piecewise_construct_tSt5tupleIJRS2_EESF_IJEEEEERS9_DpOT_, symObjAddr: 0x3F04, symBinAddr: 0x100007160, symSize: 0x7C }
  - { offset: 0x2044D, size: 0x8, addend: 0x0, symName: __ZSt7forwardISt5tupleIJRKSt4pairIiiEEEEOT_RNSt16remove_referenceIS6_E4typeE, symObjAddr: 0x3EF0, symBinAddr: 0x10000714C, symSize: 0x14 }
  - { offset: 0x204AB, size: 0x8, addend: 0x0, symName: __ZNSt11_Tuple_implILm0EJRKSt4pairIiiEEEC2ES3_, symObjAddr: 0x3EC8, symBinAddr: 0x100007124, symSize: 0x28 }
  - { offset: 0x204DA, size: 0x8, addend: 0x0, symName: __ZNSt11_Tuple_implILm1EJiiEE9_M_assignIiJiEEEvOS_ILm1EJT_DpT0_EE, symObjAddr: 0x3E64, symBinAddr: 0x1000070C0, symSize: 0x64 }
  - { offset: 0x2052C, size: 0x8, addend: 0x0, symName: __ZSt4moveIRSt11_Tuple_implILm1EJiiEEEONSt16remove_referenceIT_E4typeEOS4_, symObjAddr: 0x3E50, symBinAddr: 0x1000070AC, symSize: 0x14 }
  - { offset: 0x2055E, size: 0x8, addend: 0x0, symName: __ZNSt11_Tuple_implILm0EJiiiEE7_M_tailERS0_, symObjAddr: 0x3E3C, symBinAddr: 0x100007098, symSize: 0x14 }
  - { offset: 0x205D4, size: 0x8, addend: 0x0, symName: __ZNSt11_Tuple_implILm1EJiiEEC2IRiJS2_EvEEOT_DpOT0_, symObjAddr: 0x3DE0, symBinAddr: 0x10000703C, symSize: 0x5C }
  - { offset: 0x20623, size: 0x8, addend: 0x0, symName: __ZNSt11_Tuple_implILm2EJiEE7_M_headERS0_, symObjAddr: 0x3DC4, symBinAddr: 0x100007020, symSize: 0x1C }
  - { offset: 0x2064D, size: 0x8, addend: 0x0, symName: __ZNSt11_Tuple_implILm1EJiiEE7_M_headERS0_, symObjAddr: 0x3DA4, symBinAddr: 0x100007000, symSize: 0x20 }
  - { offset: 0x20677, size: 0x8, addend: 0x0, symName: __ZNSt11_Tuple_implILm0EJiiiEE7_M_headERS0_, symObjAddr: 0x3D84, symBinAddr: 0x100006FE0, symSize: 0x20 }
  - { offset: 0x206A1, size: 0x8, addend: 0x0, symName: __ZSt5equalIPKiS1_EbT_S2_T0_, symObjAddr: 0x3D58, symBinAddr: 0x100006FB4, symSize: 0x2C }
  - { offset: 0x20703, size: 0x8, addend: 0x0, symName: __ZNKSt5arrayIiLm3EE3endEv, symObjAddr: 0x3D38, symBinAddr: 0x100006F94, symSize: 0x20 }
  - { offset: 0x2072D, size: 0x8, addend: 0x0, symName: __ZNKSt5arrayIiLm3EE5beginEv, symObjAddr: 0x3D1C, symBinAddr: 0x100006F78, symSize: 0x1C }
  - { offset: 0x20787, size: 0x8, addend: 0x0, symName: __ZNSt10_Head_baseILm0EiLb0EEC2IRiEEOT_, symObjAddr: 0x3CEC, symBinAddr: 0x100006F48, symSize: 0x30 }
  - { offset: 0x20807, size: 0x8, addend: 0x0, symName: __ZNSt11_Tuple_implILm1EJiiEEC2IRiJiEvEEOT_DpOT0_, symObjAddr: 0x3C90, symBinAddr: 0x100006EEC, symSize: 0x5C }
  - { offset: 0x2085A, size: 0x8, addend: 0x0, symName: __ZN9__gnu_cxx16__aligned_membufISt4pairIKS1_IiiEiEE6_M_ptrEv, symObjAddr: 0x3C74, symBinAddr: 0x100006ED0, symSize: 0x1C }
  - { offset: 0x208AC, size: 0x8, addend: 0x0, symName: __ZNSt17_Rb_tree_iteratorISt4pairIKS0_IiiEiEEC1EPSt18_Rb_tree_node_base, symObjAddr: 0x3C50, symBinAddr: 0x100006EAC, symSize: 0x24 }
  - { offset: 0x208DB, size: 0x8, addend: 0x0, symName: __ZNSt8_Rb_treeISt4pairIiiES0_IKS1_iESt10_Select1stIS3_ESt4lessIS1_ESaIS3_EE10_Auto_node9_M_insertES0_IPSt18_Rb_tree_node_baseSC_E, symObjAddr: 0x3C04, symBinAddr: 0x100006E60, symSize: 0x4C }
  - { offset: 0x20927, size: 0x8, addend: 0x0, symName: __ZNKSt8_Rb_treeISt4pairIiiES0_IKS1_iESt10_Select1stIS3_ESt4lessIS1_ESaIS3_EE10_Auto_node6_M_keyEv, symObjAddr: 0x3BE4, symBinAddr: 0x100006E40, symSize: 0x20 }
  - { offset: 0x20951, size: 0x8, addend: 0x0, symName: __ZNSt8_Rb_treeISt4pairIiiES0_IKS1_iESt10_Select1stIS3_ESt4lessIS1_ESaIS3_EE29_M_get_insert_hint_unique_posESt23_Rb_tree_const_iteratorIS3_ERS2_, symObjAddr: 0x38C0, symBinAddr: 0x100006B1C, symSize: 0x324 }
  - { offset: 0x20A20, size: 0x8, addend: 0x0, symName: __ZNSt8_Rb_treeISt4pairIiiES0_IKS1_iESt10_Select1stIS3_ESt4lessIS1_ESaIS3_EE10_Auto_nodeD1Ev, symObjAddr: 0x387C, symBinAddr: 0x100006AD8, symSize: 0x44 }
  - { offset: 0x20A99, size: 0x8, addend: 0x0, symName: __ZNSt8_Rb_treeISt4pairIiiES0_IKS1_iESt10_Select1stIS3_ESt4lessIS1_ESaIS3_EE10_Auto_nodeC1IJRKSt21piecewise_construct_tSt5tupleIJOS1_EESF_IJEEEEERS9_DpOT_, symObjAddr: 0x3800, symBinAddr: 0x100006A5C, symSize: 0x7C }
  - { offset: 0x20B01, size: 0x8, addend: 0x0, symName: __ZSt7forwardISt5tupleIJEEEOT_RNSt16remove_referenceIS2_E4typeE, symObjAddr: 0x37EC, symBinAddr: 0x100006A48, symSize: 0x14 }
  - { offset: 0x20B39, size: 0x8, addend: 0x0, symName: __ZSt7forwardISt5tupleIJOSt4pairIiiEEEEOT_RNSt16remove_referenceIS5_E4typeE, symObjAddr: 0x37D8, symBinAddr: 0x100006A34, symSize: 0x14 }
  - { offset: 0x20B71, size: 0x8, addend: 0x0, symName: __ZSt7forwardIRKSt21piecewise_construct_tEOT_RNSt16remove_referenceIS3_E4typeE, symObjAddr: 0x37C4, symBinAddr: 0x100006A20, symSize: 0x14 }
  - { offset: 0x20BE2, size: 0x8, addend: 0x0, symName: __ZNSt5tupleIJOSt4pairIiiEEEC1IJS1_ELb1ELb1EEEDpOT_, symObjAddr: 0x3788, symBinAddr: 0x1000069E4, symSize: 0x3C }
  - { offset: 0x20C2F, size: 0x8, addend: 0x0, symName: __ZSt7forwardISt4pairIiiEEOT_RNSt16remove_referenceIS2_E4typeE, symObjAddr: 0x3774, symBinAddr: 0x1000069D0, symSize: 0x14 }
  - { offset: 0x20C61, size: 0x8, addend: 0x0, symName: __ZStltIiiEbRKSt4pairIT_T0_ES5_, symObjAddr: 0x370C, symBinAddr: 0x100006968, symSize: 0x68 }
  - { offset: 0x20CB2, size: 0x8, addend: 0x0, symName: __ZNKSt8_Rb_treeISt4pairIiiES0_IKS1_iESt10_Select1stIS3_ESt4lessIS1_ESaIS3_EE8key_compEv, symObjAddr: 0x36F4, symBinAddr: 0x100006950, symSize: 0x18 }
  - { offset: 0x20CDC, size: 0x8, addend: 0x0, symName: __ZNSt8_Rb_treeISt4pairIiiES0_IKS1_iESt10_Select1stIS3_ESt4lessIS1_ESaIS3_EE11lower_boundERS2_, symObjAddr: 0x36AC, symBinAddr: 0x100006908, symSize: 0x48 }
  - { offset: 0x20D3F, size: 0x8, addend: 0x0, symName: __ZNSt23_Rb_tree_const_iteratorISt4pairIKS0_IiiEiEEC1EPKSt18_Rb_tree_node_base, symObjAddr: 0x3688, symBinAddr: 0x1000068E4, symSize: 0x24 }
  - { offset: 0x20D6A, size: 0x8, addend: 0x0, symName: __ZNSt8_Rb_treeISt4pairIiiES0_IKS1_iESt10_Select1stIS3_ESt4lessIS1_ESaIS3_EE6_S_keyEPKSt18_Rb_tree_node_base, symObjAddr: 0x366C, symBinAddr: 0x1000068C8, symSize: 0x1C }
  - { offset: 0x20D98, size: 0x8, addend: 0x0, symName: __ZNKSt8_Rb_treeISt4pairIiiES0_IKS1_iESt10_Select1stIS3_ESt4lessIS1_ESaIS3_EE14_M_lower_boundEPKSt13_Rb_tree_nodeIS3_EPKSt18_Rb_tree_node_baseRS2_, symObjAddr: 0x35D0, symBinAddr: 0x10000682C, symSize: 0x9C }
  - { offset: 0x20DF5, size: 0x8, addend: 0x0, symName: __ZNKSt8_Rb_treeISt4pairIiiES0_IKS1_iESt10_Select1stIS3_ESt4lessIS1_ESaIS3_EE6_M_endEv, symObjAddr: 0x35B8, symBinAddr: 0x100006814, symSize: 0x18 }
  - { offset: 0x20E1F, size: 0x8, addend: 0x0, symName: __ZNKSt8_Rb_treeISt4pairIiiES0_IKS1_iESt10_Select1stIS3_ESt4lessIS1_ESaIS3_EE8_M_beginEv, symObjAddr: 0x35A0, symBinAddr: 0x1000067FC, symSize: 0x18 }
  - { offset: 0x20E49, size: 0x8, addend: 0x0, symName: __ZNKSt8_Rb_treeISt4pairIiiES0_IKS1_iESt10_Select1stIS3_ESt4lessIS1_ESaIS3_EE9_M_mbeginEv, symObjAddr: 0x3588, symBinAddr: 0x1000067E4, symSize: 0x18 }
  - { offset: 0x20E73, size: 0x8, addend: 0x0, symName: __ZNSt8_Rb_treeISt4pairIiiES0_IKS1_iESt10_Select1stIS3_ESt4lessIS1_ESaIS3_EE12_M_drop_nodeEPSt13_Rb_tree_nodeIS3_E, symObjAddr: 0x3554, symBinAddr: 0x1000067B0, symSize: 0x34 }
  - { offset: 0x20EAA, size: 0x8, addend: 0x0, symName: __ZNSt8_Rb_treeISt4pairIiiES0_IKS1_iESt10_Select1stIS3_ESt4lessIS1_ESaIS3_EE7_S_leftEPSt18_Rb_tree_node_base, symObjAddr: 0x353C, symBinAddr: 0x100006798, symSize: 0x18 }
  - { offset: 0x20ED4, size: 0x8, addend: 0x0, symName: __ZNSt8_Rb_treeISt4pairIiiES0_IKS1_iESt10_Select1stIS3_ESt4lessIS1_ESaIS3_EE8_S_rightEPSt18_Rb_tree_node_base, symObjAddr: 0x3524, symBinAddr: 0x100006780, symSize: 0x18 }
  - { offset: 0x20F6A, size: 0x8, addend: 0x0, symName: __ZNSt11_Tuple_implILm0EJiiiEEC2IiJiiEvEEOT_DpOT0_, symObjAddr: 0x34B4, symBinAddr: 0x100006710, symSize: 0x70 }
  - { offset: 0x20FCB, size: 0x8, addend: 0x0, symName: __ZNSt11_Tuple_implILm0EJiiiEE9_M_assignIJiiiEEEvRKS_ILm0EJDpT_EE, symObjAddr: 0x3458, symBinAddr: 0x1000066B4, symSize: 0x5C }
  - { offset: 0x2101B, size: 0x8, addend: 0x0, symName: __ZNSt8_Rb_treeISt4pairIiiES0_IKS1_iESt10_Select1stIS3_ESt4lessIS1_ESaIS3_EE22_M_emplace_hint_uniqueIJRKSt21piecewise_construct_tSt5tupleIJRS2_EESE_IJEEEEESt17_Rb_tree_iteratorIS3_ESt23_Rb_tree_const_iteratorIS3_EDpOT_, symObjAddr: 0x3380, symBinAddr: 0x1000065DC, symSize: 0xD8 }
  - { offset: 0x210E4, size: 0x8, addend: 0x0, symName: __ZNSt5tupleIJRKSt4pairIiiEEEC1ILb1ELb1EEES3_, symObjAddr: 0x3358, symBinAddr: 0x1000065B4, symSize: 0x28 }
  - { offset: 0x2111D, size: 0x8, addend: 0x0, symName: __ZNSt11_Tuple_implILm0EJiiiEE9_M_assignIiJiiEEEvOS_ILm0EJT_DpT0_EE, symObjAddr: 0x32F4, symBinAddr: 0x100006550, symSize: 0x64 }
  - { offset: 0x21174, size: 0x8, addend: 0x0, symName: __ZSt4moveIRSt5tupleIJiiiEEEONSt16remove_referenceIT_E4typeEOS4_, symObjAddr: 0x32E0, symBinAddr: 0x10000653C, symSize: 0x14 }
  - { offset: 0x211FC, size: 0x8, addend: 0x0, symName: __ZNSt11_Tuple_implILm0EJiiiEEC2IRiJS2_S2_EvEEOT_DpOT0_, symObjAddr: 0x3270, symBinAddr: 0x1000064CC, symSize: 0x70 }
  - { offset: 0x21259, size: 0x8, addend: 0x0, symName: __ZSt12__get_helperILm2EiJEERT0_RSt11_Tuple_implIXT_EJS0_DpT1_EE, symObjAddr: 0x3254, symBinAddr: 0x1000064B0, symSize: 0x1C }
  - { offset: 0x2129B, size: 0x8, addend: 0x0, symName: __ZSt12__get_helperILm1EiJiEERT0_RSt11_Tuple_implIXT_EJS0_DpT1_EE, symObjAddr: 0x3238, symBinAddr: 0x100006494, symSize: 0x1C }
  - { offset: 0x212E3, size: 0x8, addend: 0x0, symName: __ZSt12__get_helperILm0EiJiiEERT0_RSt11_Tuple_implIXT_EJS0_DpT1_EE, symObjAddr: 0x321C, symBinAddr: 0x100006478, symSize: 0x1C }
  - { offset: 0x21336, size: 0x8, addend: 0x0, symName: __ZSteqIiLm3EEbRKSt5arrayIT_XT0_EES4_, symObjAddr: 0x31CC, symBinAddr: 0x100006428, symSize: 0x50 }
  - { offset: 0x213DA, size: 0x8, addend: 0x0, symName: __ZNSt11_Tuple_implILm0EJiiiEEC2IRiJS2_iEvEEOT_DpOT0_, symObjAddr: 0x315C, symBinAddr: 0x1000063B8, symSize: 0x70 }
  - { offset: 0x2143B, size: 0x8, addend: 0x0, symName: __ZNSt13_Rb_tree_nodeISt4pairIKS0_IiiEiEE9_M_valptrEv, symObjAddr: 0x313C, symBinAddr: 0x100006398, symSize: 0x20 }
  - { offset: 0x21465, size: 0x8, addend: 0x0, symName: __ZNSt8_Rb_treeISt4pairIiiES0_IKS1_iESt10_Select1stIS3_ESt4lessIS1_ESaIS3_EE3endEv, symObjAddr: 0x3114, symBinAddr: 0x100006370, symSize: 0x28 }
  - { offset: 0x2148F, size: 0x8, addend: 0x0, symName: __ZNSt8_Rb_treeISt4pairIiiES0_IKS1_iESt10_Select1stIS3_ESt4lessIS1_ESaIS3_EE5beginEv, symObjAddr: 0x30EC, symBinAddr: 0x100006348, symSize: 0x28 }
  - { offset: 0x214BB, size: 0x8, addend: 0x0, symName: __ZSt7forwardIRKiEOT_RNSt16remove_referenceIS2_E4typeE, symObjAddr: 0x30D8, symBinAddr: 0x100006334, symSize: 0x14 }
  - { offset: 0x214F1, size: 0x8, addend: 0x0, symName: __ZNSt8_Rb_treeISt4pairIiiES0_IKS1_iESt10_Select1stIS3_ESt4lessIS1_ESaIS3_EE22_M_emplace_hint_uniqueIJRKSt21piecewise_construct_tSt5tupleIJOS1_EESE_IJEEEEESt17_Rb_tree_iteratorIS3_ESt23_Rb_tree_const_iteratorIS3_EDpOT_, symObjAddr: 0x3000, symBinAddr: 0x10000625C, symSize: 0xD8 }
  - { offset: 0x215B0, size: 0x8, addend: 0x0, symName: __ZNSt23_Rb_tree_const_iteratorISt4pairIKS0_IiiEiEEC1ERKSt17_Rb_tree_iteratorIS3_E, symObjAddr: 0x2FD8, symBinAddr: 0x100006234, symSize: 0x28 }
  - { offset: 0x215DB, size: 0x8, addend: 0x0, symName: __ZSt16forward_as_tupleIJSt4pairIiiEEESt5tupleIJDpOT_EES5_, symObjAddr: 0x2FA0, symBinAddr: 0x1000061FC, symSize: 0x38 }
  - { offset: 0x21616, size: 0x8, addend: 0x0, symName: __ZSt4moveIRSt4pairIiiEEONSt16remove_referenceIT_E4typeEOS4_, symObjAddr: 0x2F8C, symBinAddr: 0x1000061E8, symSize: 0x14 }
  - { offset: 0x2164C, size: 0x8, addend: 0x0, symName: __ZNKSt4lessISt4pairIiiEEclERKS1_S4_, symObjAddr: 0x2F64, symBinAddr: 0x1000061C0, symSize: 0x28 }
  - { offset: 0x21698, size: 0x8, addend: 0x0, symName: __ZNKSt3mapISt4pairIiiEiSt4lessIS1_ESaIS0_IKS1_iEEE8key_compEv, symObjAddr: 0x2F38, symBinAddr: 0x100006194, symSize: 0x2C }
  - { offset: 0x216C4, size: 0x8, addend: 0x0, symName: __ZSteqRKSt17_Rb_tree_iteratorISt4pairIKS0_IiiEiEES6_, symObjAddr: 0x2F08, symBinAddr: 0x100006164, symSize: 0x30 }
  - { offset: 0x21703, size: 0x8, addend: 0x0, symName: __ZNSt3mapISt4pairIiiEiSt4lessIS1_ESaIS0_IKS1_iEEE11lower_boundERS4_, symObjAddr: 0x2EE4, symBinAddr: 0x100006140, symSize: 0x24 }
  - { offset: 0x21740, size: 0x8, addend: 0x0, symName: __ZSt7forwardIRiEOT_RNSt16remove_referenceIS1_E4typeE, symObjAddr: 0x2ED0, symBinAddr: 0x10000612C, symSize: 0x14 }
  - { offset: 0x21778, size: 0x8, addend: 0x0, symName: __ZSteqRKSt23_Rb_tree_const_iteratorISt4pairIKS0_IiiEiEES6_, symObjAddr: 0x2EA0, symBinAddr: 0x1000060FC, symSize: 0x30 }
  - { offset: 0x217B7, size: 0x8, addend: 0x0, symName: __ZNKSt8_Rb_treeISt4pairIiiES0_IKS1_iESt10_Select1stIS3_ESt4lessIS1_ESaIS3_EE3endEv, symObjAddr: 0x2E78, symBinAddr: 0x1000060D4, symSize: 0x28 }
  - { offset: 0x217E1, size: 0x8, addend: 0x0, symName: __ZNKSt8_Rb_treeISt4pairIiiES0_IKS1_iESt10_Select1stIS3_ESt4lessIS1_ESaIS3_EE4findERS2_, symObjAddr: 0x2DD0, symBinAddr: 0x10000602C, symSize: 0xA8 }
  - { offset: 0x2182D, size: 0x8, addend: 0x0, symName: __ZNSt8_Rb_treeISt4pairIiiES0_IKS1_iESt10_Select1stIS3_ESt4lessIS1_ESaIS3_EE8_M_beginEv, symObjAddr: 0x2DB4, symBinAddr: 0x100006010, symSize: 0x1C }
  - { offset: 0x21857, size: 0x8, addend: 0x0, symName: __ZNSt8_Rb_treeISt4pairIiiES0_IKS1_iESt10_Select1stIS3_ESt4lessIS1_ESaIS3_EE8_M_eraseEPSt13_Rb_tree_nodeIS3_E, symObjAddr: 0x2D50, symBinAddr: 0x100005FAC, symSize: 0x64 }
  - { offset: 0x218DA, size: 0x8, addend: 0x0, symName: __ZNSt15__new_allocatorISt13_Rb_tree_nodeISt4pairIKS1_IiiEiEEED2Ev, symObjAddr: 0x2D3C, symBinAddr: 0x100005F98, symSize: 0x14 }
  - { offset: 0x2191A, size: 0x8, addend: 0x0, symName: __ZNSt20_Rb_tree_key_compareISt4lessISt4pairIiiEEEC2Ev, symObjAddr: 0x2D28, symBinAddr: 0x100005F84, symSize: 0x14 }
  - { offset: 0x219A5, size: 0x8, addend: 0x0, symName: __ZNSt5tupleIJiiiEEC1IJiiiELb1ELb1EEEDpOT_, symObjAddr: 0x2CBC, symBinAddr: 0x100005F18, symSize: 0x6C }
  - { offset: 0x21A0C, size: 0x8, addend: 0x0, symName: __ZNSt5tupleIJiiiEEaSERKS0_, symObjAddr: 0x2C94, symBinAddr: 0x100005EF0, symSize: 0x28 }
  - { offset: 0x21A47, size: 0x8, addend: 0x0, symName: __ZNSt3mapISt4pairIiiEiSt4lessIS1_ESaIS0_IKS1_iEEEixERS4_, symObjAddr: 0x2BA8, symBinAddr: 0x100005E04, symSize: 0xEC }
  - { offset: 0x21A93, size: 0x8, addend: 0x0, symName: __ZNSt5tupleIJiiiEEaSEOS0_, symObjAddr: 0x2B6C, symBinAddr: 0x100005DC8, symSize: 0x3C }
  - { offset: 0x21B1D, size: 0x8, addend: 0x0, symName: __ZNSt5tupleIJiiiEEC1IJRiS2_S2_ELb1ELb1EEEDpOT_, symObjAddr: 0x2B00, symBinAddr: 0x100005D5C, symSize: 0x6C }
  - { offset: 0x21B86, size: 0x8, addend: 0x0, symName: __ZSt3getILm2EJiiiEERNSt13tuple_elementIXT_ESt5tupleIJDpT0_EEE4typeERS4_, symObjAddr: 0x2AE4, symBinAddr: 0x100005D40, symSize: 0x1C }
  - { offset: 0x21BD5, size: 0x8, addend: 0x0, symName: __ZSt3getILm1EJiiiEERNSt13tuple_elementIXT_ESt5tupleIJDpT0_EEE4typeERS4_, symObjAddr: 0x2AC8, symBinAddr: 0x100005D24, symSize: 0x1C }
  - { offset: 0x21C24, size: 0x8, addend: 0x0, symName: __ZSt3getILm0EJiiiEERNSt13tuple_elementIXT_ESt5tupleIJDpT0_EEE4typeERS4_, symObjAddr: 0x2AAC, symBinAddr: 0x100005D08, symSize: 0x1C }
  - { offset: 0x21C6D, size: 0x8, addend: 0x0, symName: __ZStneIiLm3EEbRKSt5arrayIT_XT0_EES4_, symObjAddr: 0x2A80, symBinAddr: 0x100005CDC, symSize: 0x2C }
  - { offset: 0x21D0E, size: 0x8, addend: 0x0, symName: __ZNSt5tupleIJiiiEEC1IJRiS2_iELb1ELb1EEEDpOT_, symObjAddr: 0x2A14, symBinAddr: 0x100005C70, symSize: 0x6C }
  - { offset: 0x21D75, size: 0x8, addend: 0x0, symName: __ZNSt4pairIiiEaSERKS0_, symObjAddr: 0x29DC, symBinAddr: 0x100005C38, symSize: 0x38 }
  - { offset: 0x21DB0, size: 0x8, addend: 0x0, symName: __ZNKSt17_Rb_tree_iteratorISt4pairIKS0_IiiEiEEdeEv, symObjAddr: 0x29BC, symBinAddr: 0x100005C18, symSize: 0x20 }
  - { offset: 0x21DDA, size: 0x8, addend: 0x0, symName: __ZNSt17_Rb_tree_iteratorISt4pairIKS0_IiiEiEEppEv, symObjAddr: 0x298C, symBinAddr: 0x100005BE8, symSize: 0x30 }
  - { offset: 0x21E00, size: 0x8, addend: 0x0, symName: __ZStneRKSt17_Rb_tree_iteratorISt4pairIKS0_IiiEiEES6_, symObjAddr: 0x295C, symBinAddr: 0x100005BB8, symSize: 0x30 }
  - { offset: 0x21E3F, size: 0x8, addend: 0x0, symName: __ZNSt3mapISt4pairIiiEiSt4lessIS1_ESaIS0_IKS1_iEEE3endEv, symObjAddr: 0x2940, symBinAddr: 0x100005B9C, symSize: 0x1C }
  - { offset: 0x21E69, size: 0x8, addend: 0x0, symName: __ZNSt3mapISt4pairIiiEiSt4lessIS1_ESaIS0_IKS1_iEEE5beginEv, symObjAddr: 0x2924, symBinAddr: 0x100005B80, symSize: 0x1C }
  - { offset: 0x21EDB, size: 0x8, addend: 0x0, symName: __ZNSt4pairIiiEC1IiRKiLb1EEEOT_OT0_, symObjAddr: 0x28DC, symBinAddr: 0x100005B38, symSize: 0x48 }
  - { offset: 0x21F6D, size: 0x8, addend: 0x0, symName: __ZNSt4pairIiiEC1IRKiiLb1EEEOT_OT0_, symObjAddr: 0x2894, symBinAddr: 0x100005AF0, symSize: 0x48 }
  - { offset: 0x21FB7, size: 0x8, addend: 0x0, symName: __ZNSt3mapISt4pairIiiEiSt4lessIS1_ESaIS0_IKS1_iEEEixEOS1_, symObjAddr: 0x2798, symBinAddr: 0x1000059F4, symSize: 0xFC }
  - { offset: 0x2204B, size: 0x8, addend: 0x0, symName: __ZNSt4pairIiiEC1IiRiLb1EEEOT_OT0_, symObjAddr: 0x2750, symBinAddr: 0x1000059AC, symSize: 0x48 }
  - { offset: 0x220DD, size: 0x8, addend: 0x0, symName: __ZNSt4pairIiiEC1IRiiLb1EEEOT_OT0_, symObjAddr: 0x2708, symBinAddr: 0x100005964, symSize: 0x48 }
  - { offset: 0x22127, size: 0x8, addend: 0x0, symName: __ZNKSt3mapISt4pairIiiEiSt4lessIS1_ESaIS0_IKS1_iEEE5countERS4_, symObjAddr: 0x26B0, symBinAddr: 0x10000590C, symSize: 0x58 }
  - { offset: 0x22186, size: 0x8, addend: 0x0, symName: __ZNSt8_Rb_treeISt4pairIiiES0_IKS1_iESt10_Select1stIS3_ESt4lessIS1_ESaIS3_EED1Ev, symObjAddr: 0x267C, symBinAddr: 0x1000058D8, symSize: 0x34 }
  - { offset: 0x221E6, size: 0x8, addend: 0x0, symName: __ZNSt8_Rb_treeISt4pairIiiES0_IKS1_iESt10_Select1stIS3_ESt4lessIS1_ESaIS3_EE13_Rb_tree_implIS7_Lb1EEC1Ev, symObjAddr: 0x2638, symBinAddr: 0x100005894, symSize: 0x44 }
  - { offset: 0x22256, size: 0x8, addend: 0x0, symName: _main, symObjAddr: 0x24B0, symBinAddr: 0x10000570C, symSize: 0x188 }
  - { offset: 0x222FF, size: 0x8, addend: 0x0, symName: __Z4moveii, symObjAddr: 0x20F8, symBinAddr: 0x100005354, symSize: 0x3B8 }
  - { offset: 0x223F5, size: 0x8, addend: 0x0, symName: __Z8find_perRSt5arrayIiLm3EE, symObjAddr: 0x1E50, symBinAddr: 0x1000050AC, symSize: 0x2A8 }
  - { offset: 0x224A7, size: 0x8, addend: 0x0, symName: __Z8relocatev, symObjAddr: 0x1D50, symBinAddr: 0x100004FAC, symSize: 0x100 }
  - { offset: 0x22520, size: 0x8, addend: 0x0, symName: __ZSt7forwardIiEOT_RNSt16remove_referenceIS0_E4typeE, symObjAddr: 0x1D3C, symBinAddr: 0x100004F98, symSize: 0x14 }
  - { offset: 0x2259E, size: 0x8, addend: 0x0, symName: __ZNSt4pairIiiEC1IiiLb1EEEOT_OT0_, symObjAddr: 0x1CF4, symBinAddr: 0x100004F50, symSize: 0x48 }
  - { offset: 0x225EF, size: 0x8, addend: 0x0, symName: __Z8find_adjRKSt5arrayIiLm3EE, symObjAddr: 0x1A78, symBinAddr: 0x100004CD4, symSize: 0x27C }
  - { offset: 0x2261D, size: 0x8, addend: 0x0, symName: __ZNKSt5arrayIiLm3EEixEm, symObjAddr: 0x1A54, symBinAddr: 0x100004CB0, symSize: 0x24 }
  - { offset: 0x2265E, size: 0x8, addend: 0x0, symName: __Z5pointSt4pairIiiEi, symObjAddr: 0x17D0, symBinAddr: 0x100004A2C, symSize: 0x284 }
  - { offset: 0x226C1, size: 0x8, addend: 0x0, symName: __Z8next_posRSt5arrayIiLm3EE, symObjAddr: 0x124, symBinAddr: 0x100003380, symSize: 0x16AC }
  - { offset: 0x226EF, size: 0x8, addend: 0x0, symName: __ZNSt5arrayIiLm3EEixEm, symObjAddr: 0x100, symBinAddr: 0x10000335C, symSize: 0x24 }
  - { offset: 0x22743, size: 0x8, addend: 0x0, symName: __ZNSt3mapISt4pairIiiEiSt4lessIS1_ESaIS0_IKS1_iEEEC1Ev, symObjAddr: 0xE0, symBinAddr: 0x10000333C, symSize: 0x20 }
  - { offset: 0x22783, size: 0x8, addend: 0x0, symName: __ZNSt8_Rb_treeISt4pairIiiES0_IKS1_iESt10_Select1stIS3_ESt4lessIS1_ESaIS3_EEC1Ev, symObjAddr: 0xC0, symBinAddr: 0x10000331C, symSize: 0x20 }
  - { offset: 0x227D1, size: 0x8, addend: 0x0, symName: __ZNSt8_Rb_treeISt4pairIiiES0_IKS1_iESt10_Select1stIS3_ESt4lessIS1_ESaIS3_EE13_Rb_tree_implIS7_Lb1EED1Ev, symObjAddr: 0x94, symBinAddr: 0x1000032F0, symSize: 0x2C }
  - { offset: 0x2281B, size: 0x8, addend: 0x0, symName: __ZNSt15_Rb_tree_header8_M_resetEv, symObjAddr: 0x58, symBinAddr: 0x1000032B4, symSize: 0x3C }
  - { offset: 0x2285F, size: 0x8, addend: 0x0, symName: __ZNSt15_Rb_tree_headerC2Ev, symObjAddr: 0x30, symBinAddr: 0x10000328C, symSize: 0x28 }
  - { offset: 0x22888, size: 0x8, addend: 0x0, symName: __ZdlPvS_, symObjAddr: 0x18, symBinAddr: 0x100003274, symSize: 0x18 }
  - { offset: 0x228BE, size: 0x8, addend: 0x0, symName: __ZnwmPv, symObjAddr: 0x0, symBinAddr: 0x10000325C, symSize: 0x18 }
...
